Archive member included because of file (symbol)

C:\Softwares\CooCox\GNU Tools ARM Embedded\4.6 2012q2\arm-none-eabi\lib\armv7e-m\fpu\libm.a(lib_a-s_atan.o)
                              ..\obj\yume_mpu6050.o (atan)
C:\Softwares\CooCox\GNU Tools ARM Embedded\4.6 2012q2\arm-none-eabi\lib\armv7e-m\fpu\libm.a(lib_a-s_cos.o)
                              ..\obj\yume_hexapod_cmd.o (cos)
C:\Softwares\CooCox\GNU Tools ARM Embedded\4.6 2012q2\arm-none-eabi\lib\armv7e-m\fpu\libm.a(lib_a-s_fabs.o)
                              C:\Softwares\CooCox\GNU Tools ARM Embedded\4.6 2012q2\arm-none-eabi\lib\armv7e-m\fpu\libm.a(lib_a-s_atan.o) (fabs)
C:\Softwares\CooCox\GNU Tools ARM Embedded\4.6 2012q2\arm-none-eabi\lib\armv7e-m\fpu\libm.a(lib_a-s_fmax.o)
                              ..\obj\yume_tpa_servo.o (fmax)
C:\Softwares\CooCox\GNU Tools ARM Embedded\4.6 2012q2\arm-none-eabi\lib\armv7e-m\fpu\libm.a(lib_a-s_fpclassify.o)
                              C:\Softwares\CooCox\GNU Tools ARM Embedded\4.6 2012q2\arm-none-eabi\lib\armv7e-m\fpu\libm.a(lib_a-s_fmax.o) (__fpclassifyd)
C:\Softwares\CooCox\GNU Tools ARM Embedded\4.6 2012q2\arm-none-eabi\lib\armv7e-m\fpu\libm.a(lib_a-s_sin.o)
                              ..\obj\yume_hexapod_cmd.o (sin)
C:\Softwares\CooCox\GNU Tools ARM Embedded\4.6 2012q2\arm-none-eabi\lib\armv7e-m\fpu\libm.a(lib_a-w_acos.o)
                              ..\obj\yume_hexapod_cmd.o (acos)
C:\Softwares\CooCox\GNU Tools ARM Embedded\4.6 2012q2\arm-none-eabi\lib\armv7e-m\fpu\libm.a(lib_a-w_atan2.o)
                              ..\obj\yume_mpu6050.o (atan2)
C:\Softwares\CooCox\GNU Tools ARM Embedded\4.6 2012q2\arm-none-eabi\lib\armv7e-m\fpu\libm.a(lib_a-w_sqrt.o)
                              ..\obj\yume_mpu6050.o (sqrt)
C:\Softwares\CooCox\GNU Tools ARM Embedded\4.6 2012q2\arm-none-eabi\lib\armv7e-m\fpu\libm.a(lib_a-e_acos.o)
                              C:\Softwares\CooCox\GNU Tools ARM Embedded\4.6 2012q2\arm-none-eabi\lib\armv7e-m\fpu\libm.a(lib_a-w_acos.o) (__ieee754_acos)
C:\Softwares\CooCox\GNU Tools ARM Embedded\4.6 2012q2\arm-none-eabi\lib\armv7e-m\fpu\libm.a(lib_a-e_atan2.o)
                              C:\Softwares\CooCox\GNU Tools ARM Embedded\4.6 2012q2\arm-none-eabi\lib\armv7e-m\fpu\libm.a(lib_a-w_atan2.o) (__ieee754_atan2)
C:\Softwares\CooCox\GNU Tools ARM Embedded\4.6 2012q2\arm-none-eabi\lib\armv7e-m\fpu\libm.a(lib_a-e_rem_pio2.o)
                              C:\Softwares\CooCox\GNU Tools ARM Embedded\4.6 2012q2\arm-none-eabi\lib\armv7e-m\fpu\libm.a(lib_a-s_cos.o) (__ieee754_rem_pio2)
C:\Softwares\CooCox\GNU Tools ARM Embedded\4.6 2012q2\arm-none-eabi\lib\armv7e-m\fpu\libm.a(lib_a-e_sqrt.o)
                              C:\Softwares\CooCox\GNU Tools ARM Embedded\4.6 2012q2\arm-none-eabi\lib\armv7e-m\fpu\libm.a(lib_a-w_sqrt.o) (__ieee754_sqrt)
C:\Softwares\CooCox\GNU Tools ARM Embedded\4.6 2012q2\arm-none-eabi\lib\armv7e-m\fpu\libm.a(lib_a-k_cos.o)
                              C:\Softwares\CooCox\GNU Tools ARM Embedded\4.6 2012q2\arm-none-eabi\lib\armv7e-m\fpu\libm.a(lib_a-s_cos.o) (__kernel_cos)
C:\Softwares\CooCox\GNU Tools ARM Embedded\4.6 2012q2\arm-none-eabi\lib\armv7e-m\fpu\libm.a(lib_a-k_rem_pio2.o)
                              C:\Softwares\CooCox\GNU Tools ARM Embedded\4.6 2012q2\arm-none-eabi\lib\armv7e-m\fpu\libm.a(lib_a-e_rem_pio2.o) (__kernel_rem_pio2)
C:\Softwares\CooCox\GNU Tools ARM Embedded\4.6 2012q2\arm-none-eabi\lib\armv7e-m\fpu\libm.a(lib_a-k_sin.o)
                              C:\Softwares\CooCox\GNU Tools ARM Embedded\4.6 2012q2\arm-none-eabi\lib\armv7e-m\fpu\libm.a(lib_a-s_cos.o) (__kernel_sin)
C:\Softwares\CooCox\GNU Tools ARM Embedded\4.6 2012q2\arm-none-eabi\lib\armv7e-m\fpu\libm.a(lib_a-s_floor.o)
                              C:\Softwares\CooCox\GNU Tools ARM Embedded\4.6 2012q2\arm-none-eabi\lib\armv7e-m\fpu\libm.a(lib_a-k_rem_pio2.o) (floor)
C:\Softwares\CooCox\GNU Tools ARM Embedded\4.6 2012q2\arm-none-eabi\lib\armv7e-m\fpu\libm.a(lib_a-s_lib_ver.o)
                              C:\Softwares\CooCox\GNU Tools ARM Embedded\4.6 2012q2\arm-none-eabi\lib\armv7e-m\fpu\libm.a(lib_a-w_acos.o) (__fdlib_version)
C:\Softwares\CooCox\GNU Tools ARM Embedded\4.6 2012q2\arm-none-eabi\lib\armv7e-m\fpu\libm.a(lib_a-s_matherr.o)
                              C:\Softwares\CooCox\GNU Tools ARM Embedded\4.6 2012q2\arm-none-eabi\lib\armv7e-m\fpu\libm.a(lib_a-w_acos.o) (matherr)
C:\Softwares\CooCox\GNU Tools ARM Embedded\4.6 2012q2\arm-none-eabi\lib\armv7e-m\fpu\libm.a(lib_a-s_nan.o)
                              C:\Softwares\CooCox\GNU Tools ARM Embedded\4.6 2012q2\arm-none-eabi\lib\armv7e-m\fpu\libm.a(lib_a-w_acos.o) (nan)
C:\Softwares\CooCox\GNU Tools ARM Embedded\4.6 2012q2\arm-none-eabi\lib\armv7e-m\fpu\libm.a(lib_a-s_scalbn.o)
                              C:\Softwares\CooCox\GNU Tools ARM Embedded\4.6 2012q2\arm-none-eabi\lib\armv7e-m\fpu\libm.a(lib_a-k_rem_pio2.o) (scalbn)
C:\Softwares\CooCox\GNU Tools ARM Embedded\4.6 2012q2\arm-none-eabi\lib\armv7e-m\fpu\libm.a(lib_a-s_copysign.o)
                              C:\Softwares\CooCox\GNU Tools ARM Embedded\4.6 2012q2\arm-none-eabi\lib\armv7e-m\fpu\libm.a(lib_a-s_scalbn.o) (copysign)
c:/softwares/coocox/gnu tools arm embedded/4.6 2012q2/bin/../lib/gcc/arm-none-eabi/4.6.2/armv7e-m/fpu\libgcc.a(_arm_addsubdf3.o)
                              C:\Softwares\CooCox\GNU Tools ARM Embedded\4.6 2012q2\arm-none-eabi\lib\armv7e-m\fpu\libm.a(lib_a-s_atan.o) (__aeabi_dsub)
c:/softwares/coocox/gnu tools arm embedded/4.6 2012q2/bin/../lib/gcc/arm-none-eabi/4.6.2/armv7e-m/fpu\libgcc.a(_arm_muldivdf3.o)
                              ..\obj\yume_mpu6050.o (__aeabi_dmul)
c:/softwares/coocox/gnu tools arm embedded/4.6 2012q2/bin/../lib/gcc/arm-none-eabi/4.6.2/armv7e-m/fpu\libgcc.a(_arm_cmpdf2.o)
                              C:\Softwares\CooCox\GNU Tools ARM Embedded\4.6 2012q2\arm-none-eabi\lib\armv7e-m\fpu\libm.a(lib_a-e_rem_pio2.o) (__aeabi_dcmpeq)
c:/softwares/coocox/gnu tools arm embedded/4.6 2012q2/bin/../lib/gcc/arm-none-eabi/4.6.2/armv7e-m/fpu\libgcc.a(_arm_fixdfsi.o)
                              ..\obj\yume_mpu6050.o (__aeabi_d2iz)
c:/softwares/coocox/gnu tools arm embedded/4.6 2012q2/bin/../lib/gcc/arm-none-eabi/4.6.2/armv7e-m/fpu\libgcc.a(_arm_truncdfsf2.o)
                              ..\obj\yume_mpu6050.o (__aeabi_d2f)
C:\Softwares\CooCox\GNU Tools ARM Embedded\4.6 2012q2\arm-none-eabi\lib\armv7e-m\fpu\libc.a(lib_a-errno.o)
                              C:\Softwares\CooCox\GNU Tools ARM Embedded\4.6 2012q2\arm-none-eabi\lib\armv7e-m\fpu\libm.a(lib_a-w_acos.o) (__errno)
C:\Softwares\CooCox\GNU Tools ARM Embedded\4.6 2012q2\arm-none-eabi\lib\armv7e-m\fpu\libc.a(lib_a-impure.o)
                              C:\Softwares\CooCox\GNU Tools ARM Embedded\4.6 2012q2\arm-none-eabi\lib\armv7e-m\fpu\libc.a(lib_a-errno.o) (_impure_ptr)
C:\Softwares\CooCox\GNU Tools ARM Embedded\4.6 2012q2\arm-none-eabi\lib\armv7e-m\fpu\libc.a(lib_a-memcpy.o)
                              ..\obj\yume_dynamixel_xl_320.o (memcpy)
C:\Softwares\CooCox\GNU Tools ARM Embedded\4.6 2012q2\arm-none-eabi\lib\armv7e-m\fpu\libc.a(lib_a-sprintf.o)
                              ..\obj\yume_bumper.o (sprintf)
C:\Softwares\CooCox\GNU Tools ARM Embedded\4.6 2012q2\arm-none-eabi\lib\armv7e-m\fpu\libc.a(lib_a-strlen.o)
                              ..\obj\yume_ping_receiver.o (strlen)
C:\Softwares\CooCox\GNU Tools ARM Embedded\4.6 2012q2\arm-none-eabi\lib\armv7e-m\fpu\libc.a(lib_a-svfprintf.o)
                              C:\Softwares\CooCox\GNU Tools ARM Embedded\4.6 2012q2\arm-none-eabi\lib\armv7e-m\fpu\libc.a(lib_a-sprintf.o) (_svfprintf_r)
C:\Softwares\CooCox\GNU Tools ARM Embedded\4.6 2012q2\arm-none-eabi\lib\armv7e-m\fpu\libc.a(lib_a-dtoa.o)
                              C:\Softwares\CooCox\GNU Tools ARM Embedded\4.6 2012q2\arm-none-eabi\lib\armv7e-m\fpu\libc.a(lib_a-svfprintf.o) (_dtoa_r)
C:\Softwares\CooCox\GNU Tools ARM Embedded\4.6 2012q2\arm-none-eabi\lib\armv7e-m\fpu\libc.a(lib_a-locale.o)
                              C:\Softwares\CooCox\GNU Tools ARM Embedded\4.6 2012q2\arm-none-eabi\lib\armv7e-m\fpu\libc.a(lib_a-svfprintf.o) (_localeconv_r)
C:\Softwares\CooCox\GNU Tools ARM Embedded\4.6 2012q2\arm-none-eabi\lib\armv7e-m\fpu\libc.a(lib_a-mallocr.o)
                              C:\Softwares\CooCox\GNU Tools ARM Embedded\4.6 2012q2\arm-none-eabi\lib\armv7e-m\fpu\libc.a(lib_a-svfprintf.o) (_malloc_r)
C:\Softwares\CooCox\GNU Tools ARM Embedded\4.6 2012q2\arm-none-eabi\lib\armv7e-m\fpu\libc.a(lib_a-memchr.o)
                              C:\Softwares\CooCox\GNU Tools ARM Embedded\4.6 2012q2\arm-none-eabi\lib\armv7e-m\fpu\libc.a(lib_a-svfprintf.o) (memchr)
C:\Softwares\CooCox\GNU Tools ARM Embedded\4.6 2012q2\arm-none-eabi\lib\armv7e-m\fpu\libc.a(lib_a-mlock.o)
                              C:\Softwares\CooCox\GNU Tools ARM Embedded\4.6 2012q2\arm-none-eabi\lib\armv7e-m\fpu\libc.a(lib_a-mallocr.o) (__malloc_lock)
C:\Softwares\CooCox\GNU Tools ARM Embedded\4.6 2012q2\arm-none-eabi\lib\armv7e-m\fpu\libc.a(lib_a-mprec.o)
                              C:\Softwares\CooCox\GNU Tools ARM Embedded\4.6 2012q2\arm-none-eabi\lib\armv7e-m\fpu\libc.a(lib_a-dtoa.o) (_Balloc)
C:\Softwares\CooCox\GNU Tools ARM Embedded\4.6 2012q2\arm-none-eabi\lib\armv7e-m\fpu\libc.a(lib_a-sbrkr.o)
                              C:\Softwares\CooCox\GNU Tools ARM Embedded\4.6 2012q2\arm-none-eabi\lib\armv7e-m\fpu\libc.a(lib_a-mallocr.o) (_sbrk_r)
C:\Softwares\CooCox\GNU Tools ARM Embedded\4.6 2012q2\arm-none-eabi\lib\armv7e-m\fpu\libc.a(lib_a-strcmp.o)
                              C:\Softwares\CooCox\GNU Tools ARM Embedded\4.6 2012q2\arm-none-eabi\lib\armv7e-m\fpu\libc.a(lib_a-locale.o) (strcmp)
C:\Softwares\CooCox\GNU Tools ARM Embedded\4.6 2012q2\arm-none-eabi\lib\armv7e-m\fpu\libc.a(lib_a-svfiprintf.o)
                              C:\Softwares\CooCox\GNU Tools ARM Embedded\4.6 2012q2\arm-none-eabi\lib\armv7e-m\fpu\libc.a(lib_a-svfprintf.o) (__ssprint_r)
C:\Softwares\CooCox\GNU Tools ARM Embedded\4.6 2012q2\arm-none-eabi\lib\armv7e-m\fpu\libc.a(lib_a-callocr.o)
                              C:\Softwares\CooCox\GNU Tools ARM Embedded\4.6 2012q2\arm-none-eabi\lib\armv7e-m\fpu\libc.a(lib_a-mprec.o) (_calloc_r)
C:\Softwares\CooCox\GNU Tools ARM Embedded\4.6 2012q2\arm-none-eabi\lib\armv7e-m\fpu\libc.a(lib_a-freer.o)
                              C:\Softwares\CooCox\GNU Tools ARM Embedded\4.6 2012q2\arm-none-eabi\lib\armv7e-m\fpu\libc.a(lib_a-mallocr.o) (_free_r)
C:\Softwares\CooCox\GNU Tools ARM Embedded\4.6 2012q2\arm-none-eabi\lib\armv7e-m\fpu\libc.a(lib_a-memmove.o)
                              C:\Softwares\CooCox\GNU Tools ARM Embedded\4.6 2012q2\arm-none-eabi\lib\armv7e-m\fpu\libc.a(lib_a-svfiprintf.o) (memmove)
C:\Softwares\CooCox\GNU Tools ARM Embedded\4.6 2012q2\arm-none-eabi\lib\armv7e-m\fpu\libc.a(lib_a-memset.o)
                              C:\Softwares\CooCox\GNU Tools ARM Embedded\4.6 2012q2\arm-none-eabi\lib\armv7e-m\fpu\libc.a(lib_a-callocr.o) (memset)
C:\Softwares\CooCox\GNU Tools ARM Embedded\4.6 2012q2\arm-none-eabi\lib\armv7e-m\fpu\libc.a(lib_a-reallocr.o)
                              C:\Softwares\CooCox\GNU Tools ARM Embedded\4.6 2012q2\arm-none-eabi\lib\armv7e-m\fpu\libc.a(lib_a-svfiprintf.o) (_realloc_r)
C:\Softwares\CooCox\GNU Tools ARM Embedded\4.6 2012q2\arm-none-eabi\lib\armv7e-m\fpu\libc.a(lib_a-reent.o)
                              C:\Softwares\CooCox\GNU Tools ARM Embedded\4.6 2012q2\arm-none-eabi\lib\armv7e-m\fpu\libc.a(lib_a-sbrkr.o) (errno)
c:/softwares/coocox/gnu tools arm embedded/4.6 2012q2/bin/../lib/gcc/arm-none-eabi/4.6.2/armv7e-m/fpu\libgcc.a(_aeabi_uldivmod.o)
                              C:\Softwares\CooCox\GNU Tools ARM Embedded\4.6 2012q2\arm-none-eabi\lib\armv7e-m\fpu\libc.a(lib_a-svfprintf.o) (__aeabi_uldivmod)
c:/softwares/coocox/gnu tools arm embedded/4.6 2012q2/bin/../lib/gcc/arm-none-eabi/4.6.2/armv7e-m/fpu\libgcc.a(bpabi.o)
                              c:/softwares/coocox/gnu tools arm embedded/4.6 2012q2/bin/../lib/gcc/arm-none-eabi/4.6.2/armv7e-m/fpu\libgcc.a(_aeabi_uldivmod.o) (__gnu_uldivmod_helper)
c:/softwares/coocox/gnu tools arm embedded/4.6 2012q2/bin/../lib/gcc/arm-none-eabi/4.6.2/armv7e-m/fpu\libgcc.a(unwind-arm.o)
                              c:/softwares/coocox/gnu tools arm embedded/4.6 2012q2/bin/../lib/gcc/arm-none-eabi/4.6.2/armv7e-m/fpu\libgcc.a(bpabi.o) (__aeabi_unwind_cpp_pr0)
c:/softwares/coocox/gnu tools arm embedded/4.6 2012q2/bin/../lib/gcc/arm-none-eabi/4.6.2/armv7e-m/fpu\libgcc.a(libunwind.o)
                              c:/softwares/coocox/gnu tools arm embedded/4.6 2012q2/bin/../lib/gcc/arm-none-eabi/4.6.2/armv7e-m/fpu\libgcc.a(unwind-arm.o) (restore_core_regs)
c:/softwares/coocox/gnu tools arm embedded/4.6 2012q2/bin/../lib/gcc/arm-none-eabi/4.6.2/armv7e-m/fpu\libgcc.a(pr-support.o)
                              c:/softwares/coocox/gnu tools arm embedded/4.6 2012q2/bin/../lib/gcc/arm-none-eabi/4.6.2/armv7e-m/fpu\libgcc.a(unwind-arm.o) (__gnu_unwind_execute)
c:/softwares/coocox/gnu tools arm embedded/4.6 2012q2/bin/../lib/gcc/arm-none-eabi/4.6.2/armv7e-m/fpu\libgcc.a(_dvmd_tls.o)
                              c:/softwares/coocox/gnu tools arm embedded/4.6 2012q2/bin/../lib/gcc/arm-none-eabi/4.6.2/armv7e-m/fpu\libgcc.a(_aeabi_uldivmod.o) (__aeabi_ldiv0)
c:/softwares/coocox/gnu tools arm embedded/4.6 2012q2/bin/../lib/gcc/arm-none-eabi/4.6.2/armv7e-m/fpu\libgcc.a(_divdi3.o)
                              c:/softwares/coocox/gnu tools arm embedded/4.6 2012q2/bin/../lib/gcc/arm-none-eabi/4.6.2/armv7e-m/fpu\libgcc.a(bpabi.o) (__divdi3)
c:/softwares/coocox/gnu tools arm embedded/4.6 2012q2/bin/../lib/gcc/arm-none-eabi/4.6.2/armv7e-m/fpu\libgcc.a(_udivdi3.o)
                              c:/softwares/coocox/gnu tools arm embedded/4.6 2012q2/bin/../lib/gcc/arm-none-eabi/4.6.2/armv7e-m/fpu\libgcc.a(bpabi.o) (__udivdi3)

Allocating common symbols
Common symbol       size              file

HOME                0x4               ..\obj\yume_global_var.o
ROOM4A_FLAG         0x4               ..\obj\yume_global_var.o
GYRO_YL             0x4               ..\obj\yume_mpu6050.o
GYRO_Z_OFFSET       0x4               ..\obj\yume_mpu6050.o
I2C2_DATA           0xa               ..\obj\yume_global_var.o
AccelBuffer         0x18              ..\obj\yume_gy_85.o
GYRO_Z              0x4               ..\obj\yume_mpu6050.o
ACC_XH              0x4               ..\obj\yume_mpu6050.o
leg                 0x4               ..\obj\yume_global_var.o
GYRO_XH100          0x4               ..\obj\yume_mpu6050.o
b                   0x1               ..\obj\yume_global_var.o
lcd                 0x10              ..\obj\yume_bumper.o
DATA                0x4               ..\obj\yume_global_var.o
RWS_Byte            0x4               ..\obj\yume_bumper.o
Accel_Angle_X       0x4               ..\obj\yume_mpu6050.o
GPIO_I2C            0x8               ..\obj\yume_bumper.o
TIM_TimeBaseStructure
                    0xc               ..\obj\yume_bumper.o
ROLL                0x4               ..\obj\yume_mpu6050.o
Load_Long_Byte      0x4               ..\obj\yume_bumper.o
Position_Low_Byte   0x1               ..\obj\yume_bumper.o
GYRO_XL             0x4               ..\obj\yume_mpu6050.o
Checksum            0x1               ..\obj\yume_bumper.o
Accel_Z             0x4               ..\obj\yume_gy_85.o
errno               0x4               C:\Softwares\CooCox\GNU Tools ARM Embedded\4.6 2012q2\arm-none-eabi\lib\armv7e-m\fpu\libc.a(lib_a-reent.o)
dummy_correct       0x48              ..\obj\yume_global_var.o
Gyro_Mult           0x4               ..\obj\yume_global_var.o
ARM_CCR2_Val        0x4               ..\obj\yume_global_var.o
c4                  0x4               ..\obj\yume_global_var.o
AccelOffset_Y       0x4               ..\obj\yume_gy_85.o
Speed_Low_Byte      0x1               ..\obj\yume_bumper.o
c2                  0x4               ..\obj\yume_global_var.o
INFRARED            0x20              ..\obj\yume_global_var.o
YUME_CMPS11         0x3c              ..\obj\yume_bumper.o
Accel_PitchDeg      0x4               ..\obj\yume_gy_85.o
SHIFT_ALGORITHM_FLAG
                    0x4               ..\obj\yume_global_var.o
data1_lcd           0x10              ..\obj\yume_global_var.o
CCR1_Val            0x4               ..\obj\yume_global_var.o
GYRO_ANGLE_Z        0x4               ..\obj\yume_mpu6050.o
phi                 0x18              ..\obj\yume_global_var.o
COMPLEMENTARY_PITCH
                    0x4               ..\obj\yume_mpu6050.o
Accel_X             0x4               ..\obj\yume_gy_85.o
sudut_awal          0x48              ..\obj\yume_global_var.o
ACC_YH              0x4               ..\obj\yume_mpu6050.o
AccelOffset_X       0x4               ..\obj\yume_gy_85.o
GYRO_ZOUT_OFFSET_1000SUM
                    0x4               ..\obj\yume_mpu6050.o
ACCEL_DEG           0x4               ..\obj\yume_global_var.o
nCount              0x4               ..\obj\yume_global_var.o
index_servo         0x1               ..\obj\yume_global_var.o
A_body              0x4               ..\obj\yume_global_var.o
FLAME_SENSOR        0x8               ..\obj\yume_global_var.o
sudut_tahap1        0x48              ..\obj\yume_global_var.o
ROOM4A_CAT_AVOIDER  0x4               ..\obj\yume_global_var.o
LPF_ACCEL_Z         0x4               ..\obj\yume_mpu6050.o
arm_counter         0x4               ..\obj\yume_articulated_manipulator.o
FLT_GYRO_Y          0x4               ..\obj\yume_mpu6050.o
IMU_Stat            0x64              ..\obj\yume_mpu6050.o
Accel_Angle_Z       0x4               ..\obj\yume_mpu6050.o
COLOUR_STAT         0x4               ..\obj\yume_global_var.o
I2C1_DATA           0xa               ..\obj\yume_global_var.o
Lsem                0x4               ..\obj\yume_global_var.o
z_A                 0x48              ..\obj\yume_global_var.o
GYRO_COUNTER        0x4               ..\obj\yume_mpu6050.o
TRACER_FLAG         0x4               ..\obj\yume_global_var.o
ADC_InitStructure   0x18              ..\obj\yume_bumper.o
PID_FLAME           0x58              ..\obj\yume_bumper.o
FLAME_SIDE          0x4               ..\obj\yume_global_var.o
suhu_pixel          0x7               ..\obj\yume_global_var.o
Load_High_Byte      0x1               ..\obj\yume_bumper.o
GYRO_ANGLE_X        0x4               ..\obj\yume_mpu6050.o
COMPLEMENTARY_YAW   0x4               ..\obj\yume_mpu6050.o
Ping                0x24              ..\obj\yume_global_var.o
I2C_InitStructure   0x10              ..\obj\yume_bumper.o
ACC_XL              0x4               ..\obj\yume_mpu6050.o
tampil_adc          0x10              ..\obj\yume_global_var.o
epsilon             0x18              ..\obj\yume_global_var.o
PID_F_L             0x58              ..\obj\yume_bumper.o
pixel               0xa               ..\obj\yume_global_var.o
YUME_MPU6050        0x1c              ..\obj\yume_mpu6050.o
Incoming_Byte       0x1               ..\obj\yume_bumper.o
Moving_Byte         0x4               ..\obj\yume_bumper.o
Error_Byte          0x4               ..\obj\yume_bumper.o
Count               0x4               ..\obj\yume_global_var.o
c1                  0x4               ..\obj\yume_global_var.o
TRACER_IN_BUMPER    0x4               ..\obj\yume_global_var.o
I2C3_DATA           0xa               ..\obj\yume_global_var.o
ARM_CCR3_Val        0x4               ..\obj\yume_global_var.o
GYRO_X              0x4               ..\obj\yume_mpu6050.o
Speed_High_Byte     0x1               ..\obj\yume_bumper.o
c                   0x1               ..\obj\yume_global_var.o
v                   0x1               ..\obj\yume_global_var.o
leg_next            0x18              ..\obj\yume_global_var.o
M_TRACER            0x4               ..\obj\yume_global_var.o
Accel_Angle_Y       0x4               ..\obj\yume_mpu6050.o
ACC_YL              0x4               ..\obj\yume_mpu6050.o
Direction_Pin       0x1               ..\obj\yume_bumper.o
Position_High_Byte  0x1               ..\obj\yume_bumper.o
Accel_RollRad       0x4               ..\obj\yume_gy_85.o
TIM_OCInitStructure
                    0x14              ..\obj\yume_bumper.o
GYRO_ANGLE_Y        0x4               ..\obj\yume_mpu6050.o
sudut_target        0x48              ..\obj\yume_global_var.o
A_leg               0x18              ..\obj\yume_global_var.o
M_sum_green         0x4               ..\obj\yume_global_var.o
LPF_ACCEL_X         0x4               ..\obj\yume_mpu6050.o
Acce_Mult           0x4               ..\obj\yume_global_var.o
pembagi             0x4               ..\obj\yume_global_var.o
F_TRACER            0x4               ..\obj\yume_global_var.o
PITCH               0x4               ..\obj\yume_mpu6050.o
Speed_Long_Byte     0x4               ..\obj\yume_bumper.o
data2_lcd           0x10              ..\obj\yume_global_var.o
GYRO_ZL100          0x4               ..\obj\yume_mpu6050.o
PID_DFL_R           0x58              ..\obj\yume_bumper.o
RATE_GYRO_X         0x4               ..\obj\yume_mpu6050.o
GYRO_ZL             0x4               ..\obj\yume_mpu6050.o
Accel_RollDeg       0x4               ..\obj\yume_gy_85.o
y                   0x1               ..\obj\yume_global_var.o
Position_Long_Byte  0x4               ..\obj\yume_bumper.o
command_code        0x5               ..\obj\yume_global_var.o
Voltage_Byte        0x4               ..\obj\yume_bumper.o
PID_F_R             0x58              ..\obj\yume_bumper.o
d                   0x1               ..\obj\yume_global_var.o
PrescalerValue      0x4               ..\obj\yume_global_var.o
ARM_CCR1_Val        0x4               ..\obj\yume_global_var.o
GYRO_XH             0x4               ..\obj\yume_mpu6050.o
GPIO_InitStructure  0x8               ..\obj\yume_bumper.o
USART_InitStructure
                    0x10              ..\obj\yume_bumper.o
UV_state            0x4               ..\obj\yume_global_var.o
GYRO_DEG            0x4               ..\obj\yume_global_var.o
Time_Counter        0x1               ..\obj\yume_bumper.o
ROOM1A_SP_EXIT_FLAG
                    0x4               ..\obj\yume_global_var.o
temp_var            0x4               ..\obj\yume_global_var.o
sudut_tahap2        0x48              ..\obj\yume_global_var.o
GYRO_YH100          0x4               ..\obj\yume_mpu6050.o
ACC_ZH              0x4               ..\obj\yume_mpu6050.o
rot_switch_mode     0x2               ..\obj\yume_global_var.o
GYRO_ZH             0x4               ..\obj\yume_mpu6050.o
P_body              0x4               ..\obj\yume_global_var.o
Accel_PitchRad      0x4               ..\obj\yume_gy_85.o
F_sum_green         0x4               ..\obj\yume_global_var.o
GYRO_Y_OFFSET       0x4               ..\obj\yume_mpu6050.o
beta                0x18              ..\obj\yume_global_var.o
buf                 0x10              ..\obj\yume_global_var.o
FLT_GYRO_Z          0x4               ..\obj\yume_mpu6050.o
RATE_GYRO_Y         0x4               ..\obj\yume_mpu6050.o
y_A                 0x48              ..\obj\yume_global_var.o
c3                  0x4               ..\obj\yume_global_var.o
Accel_Y             0x4               ..\obj\yume_gy_85.o
COMPLEMENTARY_ROLL  0x4               ..\obj\yume_mpu6050.o
GYRO_ZH100          0x4               ..\obj\yume_mpu6050.o
LPF_ACCEL_Y         0x4               ..\obj\yume_mpu6050.o
CCR2_Val            0x4               ..\obj\yume_global_var.o
GYRO_YOUT_OFFSET_1000SUM
                    0x4               ..\obj\yume_mpu6050.o
Load_Low_Byte       0x1               ..\obj\yume_bumper.o
tcs3200             0x1               ..\obj\yume_global_var.o
epsilon_body        0x4               ..\obj\yume_global_var.o
AccelOffset_Z       0x4               ..\obj\yume_gy_85.o
SHARP               0xc               ..\obj\yume_global_var.o
a                   0x1               ..\obj\yume_global_var.o
GYRO_X_OFFSET       0x4               ..\obj\yume_mpu6050.o
NVIC_InitStructure  0x4               ..\obj\yume_bumper.o
P_leg               0x18              ..\obj\yume_global_var.o
GYRO_YH             0x4               ..\obj\yume_mpu6050.o
GYRO_Y              0x4               ..\obj\yume_mpu6050.o
lambpsi             0x18              ..\obj\yume_global_var.o
GYRO_XOUT_OFFSET_1000SUM
                    0x4               ..\obj\yume_mpu6050.o
regs                0x4               ..\obj\yume_global_var.o
RATE_GYRO_Z         0x4               ..\obj\yume_mpu6050.o
CCR3_Val            0x4               ..\obj\yume_global_var.o
GYRO_XL100          0x4               ..\obj\yume_mpu6050.o
ADCResult           0x4               ..\obj\yume_global_var.o
ACC_ZL              0x4               ..\obj\yume_mpu6050.o
ww                  0x18              ..\obj\yume_global_var.o
ADC_CommonInitStructure
                    0x10              ..\obj\yume_bumper.o
temp_angle          0xc               ..\obj\yume_bumper.o
Temperature_Byte    0x4               ..\obj\yume_bumper.o
index_bantu         0x1               ..\obj\yume_global_var.o
GYRO_YL100          0x4               ..\obj\yume_mpu6050.o
PID_DFL_L           0x58              ..\obj\yume_bumper.o
FLT_GYRO_X          0x4               ..\obj\yume_mpu6050.o
temp_var2           0x4               ..\obj\yume_global_var.o
received_string     0x2710            ..\obj\yume_global_var.o

Discarded input sections

 .text          0x00000000        0x0 ..\obj\yume_bumper.o
 .data          0x00000000        0x0 ..\obj\yume_bumper.o
 .bss           0x00000000        0x0 ..\obj\yume_bumper.o
 .text          0x00000000        0x0 ..\obj\yume_lcd.o
 .data          0x00000000        0x0 ..\obj\yume_lcd.o
 .bss           0x00000000        0x0 ..\obj\yume_lcd.o
 .text.lcd_save_customchar
                0x00000000       0x54 ..\obj\yume_lcd.o
 .text.lcd_write_customchar
                0x00000000       0x20 ..\obj\yume_lcd.o
 .text.lcd_home
                0x00000000       0x18 ..\obj\yume_lcd.o
 .text.lcd_cursor_on_blink_on
                0x00000000       0x1c ..\obj\yume_lcd.o
 .text.tampil   0x00000000       0xcc ..\obj\yume_lcd.o
 .text.tampil1000
                0x00000000      0x11c ..\obj\yume_lcd.o
 .text          0x00000000        0x0 ..\obj\yume_mpu6050.o
 .data          0x00000000        0x0 ..\obj\yume_mpu6050.o
 .bss           0x00000000        0x8 ..\obj\yume_mpu6050.o
 .text.MPU6050_Address_Init
                0x00000000       0x6c ..\obj\yume_mpu6050.o
 .text.MPU_6050_I2C_Init
                0x00000000      0x11c ..\obj\yume_mpu6050.o
 .text.MPU_6050_Init
                0x00000000      0x134 ..\obj\yume_mpu6050.o
 .text.Read_Gyro
                0x00000000       0x90 ..\obj\yume_mpu6050.o
 .text.Read_Accelerometer
                0x00000000      0x790 ..\obj\yume_mpu6050.o
 .text.ComplementaryFilter
                0x00000000       0xc0 ..\obj\yume_mpu6050.o
 .rodata        0x00000000       0x54 ..\obj\yume_mpu6050.o
 .text.Gyro_Calibration
                0x00000000      0x240 ..\obj\yume_mpu6050.o
 .text.Read_Gyroscope
                0x00000000      0x2e8 ..\obj\yume_mpu6050.o
 .text.yume_get_distance_x
                0x00000000       0x78 ..\obj\yume_mpu6050.o
 .text.Accel2mms
                0x00000000       0x90 ..\obj\yume_mpu6050.o
 COMMON         0x00000000      0x140 ..\obj\yume_mpu6050.o
 .text          0x00000000        0x0 ..\obj\yume_rotary_switch.o
 .data          0x00000000        0x0 ..\obj\yume_rotary_switch.o
 .bss           0x00000000        0x0 ..\obj\yume_rotary_switch.o
 .text          0x00000000        0x0 ..\obj\yume_tcs3200_receiver.o
 .data          0x00000000        0x0 ..\obj\yume_tcs3200_receiver.o
 .bss           0x00000000        0x0 ..\obj\yume_tcs3200_receiver.o
 .text.Display_TCS3200
                0x00000000      0x120 ..\obj\yume_tcs3200_receiver.o
 .text.Display_TCS3200_CMD_CODE
                0x00000000      0x124 ..\obj\yume_tcs3200_receiver.o
 .text.Get_TCS3200_Rule
                0x00000000      0x164 ..\obj\yume_tcs3200_receiver.o
 .text.Button_CMD
                0x00000000      0x15c ..\obj\yume_tcs3200_receiver.o
 .text.TCS3200_MainMenu
                0x00000000      0x3b4 ..\obj\yume_tcs3200_receiver.o
 .text.YUME_MainMenu
                0x00000000      0x518 ..\obj\yume_tcs3200_receiver.o
 .text.TCS3200_Command
                0x00000000       0xd8 ..\obj\yume_tcs3200_receiver.o
 COMMON         0x00000000        0x0 ..\obj\yume_tcs3200_receiver.o
 .text          0x00000000        0x0 ..\obj\stm32f4xx_usart.o
 .data          0x00000000        0x0 ..\obj\stm32f4xx_usart.o
 .bss           0x00000000        0x0 ..\obj\stm32f4xx_usart.o
 .text.USART_DeInit
                0x00000000      0x100 ..\obj\stm32f4xx_usart.o
 .text.USART_StructInit
                0x00000000       0x44 ..\obj\stm32f4xx_usart.o
 .text.USART_ClockInit
                0x00000000       0x54 ..\obj\stm32f4xx_usart.o
 .text.USART_ClockStructInit
                0x00000000       0x34 ..\obj\stm32f4xx_usart.o
 .text.USART_SetPrescaler
                0x00000000       0x38 ..\obj\stm32f4xx_usart.o
 .text.USART_OverSampling8Cmd
                0x00000000       0x48 ..\obj\stm32f4xx_usart.o
 .text.USART_OneBitMethodCmd
                0x00000000       0x40 ..\obj\stm32f4xx_usart.o
 .text.USART_ReceiveData
                0x00000000       0x24 ..\obj\stm32f4xx_usart.o
 .text.USART_SetAddress
                0x00000000       0x38 ..\obj\stm32f4xx_usart.o
 .text.USART_ReceiverWakeUpCmd
                0x00000000       0x40 ..\obj\stm32f4xx_usart.o
 .text.USART_WakeUpConfig
                0x00000000       0x38 ..\obj\stm32f4xx_usart.o
 .text.USART_LINBreakDetectLengthConfig
                0x00000000       0x38 ..\obj\stm32f4xx_usart.o
 .text.USART_LINCmd
                0x00000000       0x40 ..\obj\stm32f4xx_usart.o
 .text.USART_SendBreak
                0x00000000       0x24 ..\obj\stm32f4xx_usart.o
 .text.USART_HalfDuplexCmd
                0x00000000       0x40 ..\obj\stm32f4xx_usart.o
 .text.USART_SetGuardTime
                0x00000000       0x3c ..\obj\stm32f4xx_usart.o
 .text.USART_SmartCardCmd
                0x00000000       0x40 ..\obj\stm32f4xx_usart.o
 .text.USART_SmartCardNACKCmd
                0x00000000       0x40 ..\obj\stm32f4xx_usart.o
 .text.USART_IrDAConfig
                0x00000000       0x38 ..\obj\stm32f4xx_usart.o
 .text.USART_IrDACmd
                0x00000000       0x40 ..\obj\stm32f4xx_usart.o
 .text.USART_DMACmd
                0x00000000       0x48 ..\obj\stm32f4xx_usart.o
 .text.USART_ClearFlag
                0x00000000       0x24 ..\obj\stm32f4xx_usart.o
 .text.USART_ClearITPendingBit
                0x00000000       0x44 ..\obj\stm32f4xx_usart.o
 .text          0x00000000        0x0 ..\obj\yume_articulated_manipulator.o
 .data          0x00000000        0x0 ..\obj\yume_articulated_manipulator.o
 .bss           0x00000000        0x0 ..\obj\yume_articulated_manipulator.o
 .text.YUME_Manipulator_Initialization
                0x00000000       0x24 ..\obj\yume_articulated_manipulator.o
 .text.Manipulator_Servo_Init
                0x00000000      0x138 ..\obj\yume_articulated_manipulator.o
 .text.Manipulator_TIM_Init
                0x00000000       0x50 ..\obj\yume_articulated_manipulator.o
 .text.Manipulator_Interrupt_Init
                0x00000000      0x160 ..\obj\yume_articulated_manipulator.o
 .text.Move_ARM
                0x00000000       0x40 ..\obj\yume_articulated_manipulator.o
 .text          0x00000000        0x0 ..\obj\yume_gy_85.o
 .data          0x00000000        0x0 ..\obj\yume_gy_85.o
 .bss           0x00000000        0x0 ..\obj\yume_gy_85.o
 .text.YUME_GY_85_Init
                0x00000000       0x10 ..\obj\yume_gy_85.o
 .text.GY_85_I2C_Init
                0x00000000      0x11c ..\obj\yume_gy_85.o
 .text.Write_I2C2
                0x00000000       0xfc ..\obj\yume_gy_85.o
 .text.Read_I2C2
                0x00000000      0x198 ..\obj\yume_gy_85.o
 .rodata        0x00000000      0x104 ..\obj\yume_gy_85.o
 .text.ADXL345_Init
                0x00000000       0x7c ..\obj\yume_gy_85.o
 .text.ADXL345_RangeConfig
                0x00000000       0x6c ..\obj\yume_gy_85.o
 .text.ADXL345_GetRange
                0x00000000       0x44 ..\obj\yume_gy_85.o
 .text.ADXL_DataRate_Config
                0x00000000       0x24 ..\obj\yume_gy_85.o
 .text.ReadAccel_ADXL345
                0x00000000      0x120 ..\obj\yume_gy_85.o
 .text.GetOrientation
                0x00000000      0x3a0 ..\obj\yume_gy_85.o
 COMMON         0x00000000       0x40 ..\obj\yume_gy_85.o
 .text          0x00000000        0x0 ..\obj\yume_usart_comm.o
 .data          0x00000000        0x0 ..\obj\yume_usart_comm.o
 .text.Command_Gait
                0x00000000       0x48 ..\obj\yume_usart_comm.o
 .text.TCS3200_CMD
                0x00000000       0x48 ..\obj\yume_usart_comm.o
 .text          0x00000000        0x0 ..\obj\startup_stm32f4xx.o
 .data          0x00000000        0x0 ..\obj\startup_stm32f4xx.o
 .bss           0x00000000        0x0 ..\obj\startup_stm32f4xx.o
 .text          0x00000000        0x0 ..\obj\yume_extinguisher.o
 .data          0x00000000        0x0 ..\obj\yume_extinguisher.o
 .bss           0x00000000        0x0 ..\obj\yume_extinguisher.o
 .text.YUME_Extinguisher_Init
                0x00000000       0x1c ..\obj\yume_extinguisher.o
 .text.Pump_GPIOInit
                0x00000000       0x6c ..\obj\yume_extinguisher.o
 .text.YUME_HydroPump
                0x00000000       0x30 ..\obj\yume_extinguisher.o
 .text          0x00000000        0x0 ..\obj\main.o
 .data          0x00000000        0x4 ..\obj\main.o
 .bss           0x00000000        0x0 ..\obj\main.o
 .text          0x00000000        0x0 ..\obj\stm32f4xx_rcc.o
 .bss           0x00000000        0x0 ..\obj\stm32f4xx_rcc.o
 .text.RCC_DeInit
                0x00000000       0x84 ..\obj\stm32f4xx_rcc.o
 .text.RCC_HSEConfig
                0x00000000       0x30 ..\obj\stm32f4xx_rcc.o
 .text.RCC_WaitForHSEStartUp
                0x00000000       0x64 ..\obj\stm32f4xx_rcc.o
 .text.RCC_AdjustHSICalibrationValue
                0x00000000       0x48 ..\obj\stm32f4xx_rcc.o
 .text.RCC_HSICmd
                0x00000000       0x20 ..\obj\stm32f4xx_rcc.o
 .text.RCC_LSEConfig
                0x00000000       0x60 ..\obj\stm32f4xx_rcc.o
 .text.RCC_LSICmd
                0x00000000       0x20 ..\obj\stm32f4xx_rcc.o
 .text.RCC_PLLConfig
                0x00000000       0x48 ..\obj\stm32f4xx_rcc.o
 .text.RCC_PLLCmd
                0x00000000       0x20 ..\obj\stm32f4xx_rcc.o
 .text.RCC_PLLI2SConfig
                0x00000000       0x30 ..\obj\stm32f4xx_rcc.o
 .text.RCC_PLLI2SCmd
                0x00000000       0x20 ..\obj\stm32f4xx_rcc.o
 .text.RCC_ClockSecuritySystemCmd
                0x00000000       0x20 ..\obj\stm32f4xx_rcc.o
 .text.RCC_MCO1Config
                0x00000000       0x48 ..\obj\stm32f4xx_rcc.o
 .text.RCC_MCO2Config
                0x00000000       0x48 ..\obj\stm32f4xx_rcc.o
 .text.RCC_SYSCLKConfig
                0x00000000       0x40 ..\obj\stm32f4xx_rcc.o
 .text.RCC_GetSYSCLKSource
                0x00000000       0x20 ..\obj\stm32f4xx_rcc.o
 .text.RCC_HCLKConfig
                0x00000000       0x40 ..\obj\stm32f4xx_rcc.o
 .text.RCC_PCLK1Config
                0x00000000       0x40 ..\obj\stm32f4xx_rcc.o
 .text.RCC_PCLK2Config
                0x00000000       0x44 ..\obj\stm32f4xx_rcc.o
 .text.RCC_RTCCLKConfig
                0x00000000       0x78 ..\obj\stm32f4xx_rcc.o
 .text.RCC_RTCCLKCmd
                0x00000000       0x20 ..\obj\stm32f4xx_rcc.o
 .text.RCC_BackupResetCmd
                0x00000000       0x20 ..\obj\stm32f4xx_rcc.o
 .text.RCC_I2SCLKConfig
                0x00000000       0x20 ..\obj\stm32f4xx_rcc.o
 .text.RCC_AHB2PeriphClockCmd
                0x00000000       0x58 ..\obj\stm32f4xx_rcc.o
 .text.RCC_AHB3PeriphClockCmd
                0x00000000       0x58 ..\obj\stm32f4xx_rcc.o
 .text.RCC_AHB1PeriphResetCmd
                0x00000000       0x58 ..\obj\stm32f4xx_rcc.o
 .text.RCC_AHB2PeriphResetCmd
                0x00000000       0x58 ..\obj\stm32f4xx_rcc.o
 .text.RCC_AHB3PeriphResetCmd
                0x00000000       0x58 ..\obj\stm32f4xx_rcc.o
 .text.RCC_APB1PeriphResetCmd
                0x00000000       0x58 ..\obj\stm32f4xx_rcc.o
 .text.RCC_APB2PeriphResetCmd
                0x00000000       0x58 ..\obj\stm32f4xx_rcc.o
 .text.RCC_AHB1PeriphClockLPModeCmd
                0x00000000       0x58 ..\obj\stm32f4xx_rcc.o
 .text.RCC_AHB2PeriphClockLPModeCmd
                0x00000000       0x58 ..\obj\stm32f4xx_rcc.o
 .text.RCC_AHB3PeriphClockLPModeCmd
                0x00000000       0x58 ..\obj\stm32f4xx_rcc.o
 .text.RCC_APB1PeriphClockLPModeCmd
                0x00000000       0x58 ..\obj\stm32f4xx_rcc.o
 .text.RCC_APB2PeriphClockLPModeCmd
                0x00000000       0x58 ..\obj\stm32f4xx_rcc.o
 .text.RCC_ITConfig
                0x00000000       0x60 ..\obj\stm32f4xx_rcc.o
 .text.RCC_GetFlagStatus
                0x00000000       0x90 ..\obj\stm32f4xx_rcc.o
 .text.RCC_ClearFlag
                0x00000000       0x24 ..\obj\stm32f4xx_rcc.o
 .text.RCC_GetITStatus
                0x00000000       0x40 ..\obj\stm32f4xx_rcc.o
 .text.RCC_ClearITPendingBit
                0x00000000       0x20 ..\obj\stm32f4xx_rcc.o
 .text          0x00000000        0x0 ..\obj\yume_cmps11.o
 .data          0x00000000        0x0 ..\obj\yume_cmps11.o
 .bss           0x00000000        0x0 ..\obj\yume_cmps11.o
 .text.YUME_CMPS11_I2C_Init
                0x00000000      0x11c ..\obj\yume_cmps11.o
 .text.I2C2_TimeOut
                0x00000000       0x5c ..\obj\yume_cmps11.o
 .text.RyanRead_I2C2
                0x00000000      0x18c ..\obj\yume_cmps11.o
 .text.I2C2_ReadByte
                0x00000000      0x2ac ..\obj\yume_cmps11.o
 .text.I2C2_ReadMultiByte
                0x00000000      0x31c ..\obj\yume_cmps11.o
 .text.I2C2_WriteByte
                0x00000000      0x1e0 ..\obj\yume_cmps11.o
 .text.I2C2_WriteMultiByte
                0x00000000      0x230 ..\obj\yume_cmps11.o
 .text.CMPS11_I2C_Calibration
                0x00000000       0xcc ..\obj\yume_cmps11.o
 .rodata        0x00000000      0x328 ..\obj\yume_cmps11.o
 .text.GetCMPS11_Pitch
                0x00000000       0xd0 ..\obj\yume_cmps11.o
 .text.GetCMPS11_Roll
                0x00000000       0xd0 ..\obj\yume_cmps11.o
 .text.GetCMPS11_Angle8Bit
                0x00000000      0x1bc ..\obj\yume_cmps11.o
 .text.GetCMPS11_Angle16Bit
                0x00000000      0x168 ..\obj\yume_cmps11.o
 .text.GetCMPS11_MagRaw
                0x00000000      0x29c ..\obj\yume_cmps11.o
 .text.GetCMPS11_AccRaw
                0x00000000      0x29c ..\obj\yume_cmps11.o
 .text.GetCMPS11_GyroRaw
                0x00000000      0x2c8 ..\obj\yume_cmps11.o
 .text.GetCMPS11_Temperature
                0x00000000      0x110 ..\obj\yume_cmps11.o
 .text.CMPS11_GetComplementaryFilter
                0x00000000      0x6f8 ..\obj\yume_cmps11.o
 .text.CMPS11_Transmit
                0x00000000       0x30 ..\obj\yume_cmps11.o
 .text.CMPS11_Calibration
                0x00000000      0x10c ..\obj\yume_cmps11.o
 .text.CMPS11_GetPitch
                0x00000000       0x48 ..\obj\yume_cmps11.o
 .text.CMPS11_GetRoll
                0x00000000       0x48 ..\obj\yume_cmps11.o
 .text.CMPS11_GetAngle16Bit
                0x00000000       0xc0 ..\obj\yume_cmps11.o
 .text.CMPS11_GetAngle8Bit
                0x00000000       0x48 ..\obj\yume_cmps11.o
 .text.I2C3_Init
                0x00000000      0x184 ..\obj\yume_cmps11.o
 .text.I2C3_TimeOut
                0x00000000       0x6c ..\obj\yume_cmps11.o
 .text.I2C3_ReadByte
                0x00000000      0x2ac ..\obj\yume_cmps11.o
 .text.I2C3_Test
                0x00000000       0xc8 ..\obj\yume_cmps11.o
 .text          0x00000000        0x0 ..\obj\yume_bldc_fan.o
 .data          0x00000000        0x0 ..\obj\yume_bldc_fan.o
 .bss           0x00000000        0x0 ..\obj\yume_bldc_fan.o
 .text.YUME_Suppress_Fire
                0x00000000        0xc ..\obj\yume_bldc_fan.o
 .text.TIM12_PWM_Config
                0x00000000      0x14c ..\obj\yume_bldc_fan.o
 .text.button_init
                0x00000000       0x6c ..\obj\yume_bldc_fan.o
 .text          0x00000000        0x0 ..\obj\yume_i2c_lcd.o
 .data          0x00000000        0x0 ..\obj\yume_i2c_lcd.o
 .bss           0x00000000        0x0 ..\obj\yume_i2c_lcd.o
 .text.YUME_I2C_LCD_Init
                0x00000000      0x11c ..\obj\yume_i2c_lcd.o
 .text.ExpanderWrite
                0x00000000       0x14 ..\obj\yume_i2c_lcd.o
 .text          0x00000000        0x0 ..\obj\stm32f4xx_adc.o
 .data          0x00000000        0x0 ..\obj\stm32f4xx_adc.o
 .bss           0x00000000        0x0 ..\obj\stm32f4xx_adc.o
 .text.ADC_DeInit
                0x00000000       0x20 ..\obj\stm32f4xx_adc.o
 .text.ADC_StructInit
                0x00000000       0x4c ..\obj\stm32f4xx_adc.o
 .text.ADC_CommonStructInit
                0x00000000       0x34 ..\obj\stm32f4xx_adc.o
 .text.ADC_AnalogWatchdogCmd
                0x00000000       0x3c ..\obj\stm32f4xx_adc.o
 .text.ADC_AnalogWatchdogThresholdsConfig
                0x00000000       0x28 ..\obj\stm32f4xx_adc.o
 .text.ADC_AnalogWatchdogSingleChannelConfig
                0x00000000       0x38 ..\obj\stm32f4xx_adc.o
 .text.ADC_TempSensorVrefintCmd
                0x00000000       0x4c ..\obj\stm32f4xx_adc.o
 .text.ADC_VBATCmd
                0x00000000       0x4c ..\obj\stm32f4xx_adc.o
 .text.ADC_GetSoftwareStartConvStatus
                0x00000000       0x38 ..\obj\stm32f4xx_adc.o
 .text.ADC_EOCOnEachRegularChannelCmd
                0x00000000       0x38 ..\obj\stm32f4xx_adc.o
 .text.ADC_DiscModeChannelCountConfig
                0x00000000       0x4c ..\obj\stm32f4xx_adc.o
 .text.ADC_DiscModeCmd
                0x00000000       0x38 ..\obj\stm32f4xx_adc.o
 .text.ADC_GetMultiModeConversionValue
                0x00000000       0x18 ..\obj\stm32f4xx_adc.o
 .text.ADC_DMACmd
                0x00000000       0x38 ..\obj\stm32f4xx_adc.o
 .text.ADC_DMARequestAfterLastTransferCmd
                0x00000000       0x38 ..\obj\stm32f4xx_adc.o
 .text.ADC_MultiModeDMARequestAfterLastTransferCmd
                0x00000000       0x4c ..\obj\stm32f4xx_adc.o
 .text.ADC_InjectedChannelConfig
                0x00000000      0x144 ..\obj\stm32f4xx_adc.o
 .text.ADC_InjectedSequencerLengthConfig
                0x00000000       0x4c ..\obj\stm32f4xx_adc.o
 .text.ADC_SetInjectedOffset
                0x00000000       0x34 ..\obj\stm32f4xx_adc.o
 .text.ADC_ExternalTrigInjectedConvConfig
                0x00000000       0x38 ..\obj\stm32f4xx_adc.o
 .text.ADC_ExternalTrigInjectedConvEdgeConfig
                0x00000000       0x38 ..\obj\stm32f4xx_adc.o
 .text.ADC_SoftwareStartInjectedConv
                0x00000000       0x20 ..\obj\stm32f4xx_adc.o
 .text.ADC_GetSoftwareStartInjectedConvCmdStatus
                0x00000000       0x38 ..\obj\stm32f4xx_adc.o
 .text.ADC_AutoInjectedConvCmd
                0x00000000       0x38 ..\obj\stm32f4xx_adc.o
 .text.ADC_InjectedDiscModeCmd
                0x00000000       0x38 ..\obj\stm32f4xx_adc.o
 .text.ADC_GetInjectedConversionValue
                0x00000000       0x34 ..\obj\stm32f4xx_adc.o
 .text.ADC_ITConfig
                0x00000000       0x5c ..\obj\stm32f4xx_adc.o
 .text.ADC_GetFlagStatus
                0x00000000       0x3c ..\obj\stm32f4xx_adc.o
 .text.ADC_ClearFlag
                0x00000000       0x20 ..\obj\stm32f4xx_adc.o
 .text.ADC_GetITStatus
                0x00000000       0x70 ..\obj\stm32f4xx_adc.o
 .text.ADC_ClearITPendingBit
                0x00000000       0x30 ..\obj\stm32f4xx_adc.o
 .text          0x00000000        0x0 ..\obj\yume_utilities.o
 .data          0x00000000        0x0 ..\obj\yume_utilities.o
 .bss           0x00000000        0x0 ..\obj\yume_utilities.o
 .text          0x00000000        0x0 ..\obj\yume_systick_delay.o
 .data          0x00000000        0x0 ..\obj\yume_systick_delay.o
 .text          0x00000000        0x0 ..\obj\yume_tpa_servo.o
 .data          0x00000000        0x0 ..\obj\yume_tpa_servo.o
 .bss           0x00000000        0x0 ..\obj\yume_tpa_servo.o
 .rodata        0x00000000       0x18 ..\obj\yume_tpa_servo.o
 .text.PanServo_Init
                0x00000000        0xc ..\obj\yume_tpa_servo.o
 .text.TIM12_PWM_Configuration
                0x00000000      0x14c ..\obj\yume_tpa_servo.o
 .text.Set_Servo
                0x00000000       0x3c ..\obj\yume_tpa_servo.o
 .text.TIM4_PWM_Configuration
                0x00000000      0x14c ..\obj\yume_tpa_servo.o
 .text.Set_Servo2
                0x00000000       0x34 ..\obj\yume_tpa_servo.o
 .text.YUME_Thermopile_Init
                0x00000000        0xc ..\obj\yume_tpa_servo.o
 .text.Setup_I2C
                0x00000000      0x11c ..\obj\yume_tpa_servo.o
 .text.Write_I2C
                0x00000000       0xfc ..\obj\yume_tpa_servo.o
 .text.Read_I2C
                0x00000000      0x198 ..\obj\yume_tpa_servo.o
 .text.YUME_TPA_Check
                0x00000000      0x434 ..\obj\yume_tpa_servo.o
 .text.tpa_servo
                0x00000000       0xac ..\obj\yume_tpa_servo.o
 .text.Get_TPA81
                0x00000000       0x80 ..\obj\yume_tpa_servo.o
 .text.YUME_TPA81_I2C_Init
                0x00000000      0x11c ..\obj\yume_tpa_servo.o
 .text.I2C1_TimeOut
                0x00000000       0x5c ..\obj\yume_tpa_servo.o
 .text.I2C1_ReadByte
                0x00000000      0x2ac ..\obj\yume_tpa_servo.o
 .text.I2C1_ReadMultiByte
                0x00000000      0x31c ..\obj\yume_tpa_servo.o
 .text.I2C1_WriteByte
                0x00000000      0x1e0 ..\obj\yume_tpa_servo.o
 .text.I2C1_WriteMultiByte
                0x00000000      0x220 ..\obj\yume_tpa_servo.o
 .text          0x00000000        0x0 ..\obj\yume_sound_activation.o
 .data          0x00000000        0x0 ..\obj\yume_sound_activation.o
 .bss           0x00000000        0x0 ..\obj\yume_sound_activation.o
 .rodata        0x00000000       0x14 ..\obj\yume_sound_activation.o
 .text.YUME_Sound_Activation
                0x00000000       0xc4 ..\obj\yume_sound_activation.o
 .text          0x00000000        0x0 ..\obj\stm32f4xx_gpio.o
 .data          0x00000000        0x0 ..\obj\stm32f4xx_gpio.o
 .bss           0x00000000        0x0 ..\obj\stm32f4xx_gpio.o
 .text.GPIO_DeInit
                0x00000000      0x178 ..\obj\stm32f4xx_gpio.o
 .text.GPIO_StructInit
                0x00000000       0x3c ..\obj\stm32f4xx_gpio.o
 .text.GPIO_PinLockConfig
                0x00000000       0x44 ..\obj\stm32f4xx_gpio.o
 .text.GPIO_ReadInputData
                0x00000000       0x1c ..\obj\stm32f4xx_gpio.o
 .text.GPIO_ReadOutputDataBit
                0x00000000       0x3c ..\obj\stm32f4xx_gpio.o
 .text.GPIO_ReadOutputData
                0x00000000       0x1c ..\obj\stm32f4xx_gpio.o
 .text.GPIO_WriteBit
                0x00000000       0x30 ..\obj\stm32f4xx_gpio.o
 .text.GPIO_Write
                0x00000000       0x1c ..\obj\stm32f4xx_gpio.o
 .text.GPIO_ToggleBits
                0x00000000       0x24 ..\obj\stm32f4xx_gpio.o
 .text          0x00000000        0x0 ..\obj\system_stm32f4xx.o
 .bss           0x00000000        0x0 ..\obj\system_stm32f4xx.o
 .text.SystemCoreClockUpdate
                0x00000000      0x174 ..\obj\system_stm32f4xx.o
 .text          0x00000000        0x0 ..\obj\syscalls.o
 .data          0x00000000        0x0 ..\obj\syscalls.o
 .text.link     0x00000000       0x1c ..\obj\syscalls.o
 .text._close   0x00000000       0x18 ..\obj\syscalls.o
 .text._fstat   0x00000000       0x24 ..\obj\syscalls.o
 .text._isatty  0x00000000       0x18 ..\obj\syscalls.o
 .text._lseek   0x00000000       0x1c ..\obj\syscalls.o
 .text._read    0x00000000       0x1c ..\obj\syscalls.o
 .text._write   0x00000000       0x1c ..\obj\syscalls.o
 .text          0x00000000        0x0 ..\obj\yume_tcs3200.o
 .data          0x00000000        0x0 ..\obj\yume_tcs3200.o
 .bss           0x00000000        0x0 ..\obj\yume_tcs3200.o
 .text          0x00000000        0x0 ..\obj\yume_algorithm.o
 .data          0x00000000        0x0 ..\obj\yume_algorithm.o
 .bss           0x00000000        0x0 ..\obj\yume_algorithm.o
 .text          0x00000000        0x0 ..\obj\yume_global_var.o
 .text          0x00000000        0x0 ..\obj\yume_infrared_proximity.o
 .data          0x00000000        0x0 ..\obj\yume_infrared_proximity.o
 .bss           0x00000000        0x0 ..\obj\yume_infrared_proximity.o
 .text.Get_IR_Right
                0x00000000       0x24 ..\obj\yume_infrared_proximity.o
 .text.Get_IR_Left
                0x00000000       0x24 ..\obj\yume_infrared_proximity.o
 .text          0x00000000        0x0 ..\obj\yume_pid_controller.o
 .data          0x00000000        0x4 ..\obj\yume_pid_controller.o
 .bss           0x00000000        0x0 ..\obj\yume_pid_controller.o
 .rodata        0x00000000       0x6c ..\obj\yume_pid_controller.o
 .text.PID_Runtime_Tuning
                0x00000000      0x4dc ..\obj\yume_pid_controller.o
 .text.Kp_Tuning
                0x00000000      0x11c ..\obj\yume_pid_controller.o
 .text.Ki_Tuning
                0x00000000      0x11c ..\obj\yume_pid_controller.o
 .text.Kd_Tuning
                0x00000000      0x11c ..\obj\yume_pid_controller.o
 .text          0x00000000        0x0 ..\obj\yume_user_interface.o
 .data          0x00000000        0x0 ..\obj\yume_user_interface.o
 .bss           0x00000000        0x0 ..\obj\yume_user_interface.o
 .text.LED_Init
                0x00000000       0x6c ..\obj\yume_user_interface.o
 .text.SND_ACT_LED_Init
                0x00000000       0x6c ..\obj\yume_user_interface.o
 .text.COMVISION_LED_Init
                0x00000000       0x6c ..\obj\yume_user_interface.o
 .text          0x00000000        0x0 ..\obj\stm32f4xx_i2c.o
 .data          0x00000000        0x0 ..\obj\stm32f4xx_i2c.o
 .bss           0x00000000        0x0 ..\obj\stm32f4xx_i2c.o
 .text.I2C_DeInit
                0x00000000       0x88 ..\obj\stm32f4xx_i2c.o
 .text.I2C_Init
                0x00000000      0x1ac ..\obj\stm32f4xx_i2c.o
 .text.I2C_StructInit
                0x00000000       0x44 ..\obj\stm32f4xx_i2c.o
 .text.I2C_Cmd  0x00000000       0x40 ..\obj\stm32f4xx_i2c.o
 .text.I2C_GenerateSTART
                0x00000000       0x40 ..\obj\stm32f4xx_i2c.o
 .text.I2C_GenerateSTOP
                0x00000000       0x40 ..\obj\stm32f4xx_i2c.o
 .text.I2C_Send7bitAddress
                0x00000000       0x3c ..\obj\stm32f4xx_i2c.o
 .text.I2C_AcknowledgeConfig
                0x00000000       0x40 ..\obj\stm32f4xx_i2c.o
 .text.I2C_OwnAddress2Config
                0x00000000       0x44 ..\obj\stm32f4xx_i2c.o
 .text.I2C_DualAddressCmd
                0x00000000       0x40 ..\obj\stm32f4xx_i2c.o
 .text.I2C_GeneralCallCmd
                0x00000000       0x40 ..\obj\stm32f4xx_i2c.o
 .text.I2C_SoftwareResetCmd
                0x00000000       0x48 ..\obj\stm32f4xx_i2c.o
 .text.I2C_StretchClockCmd
                0x00000000       0x40 ..\obj\stm32f4xx_i2c.o
 .text.I2C_FastModeDutyCycleConfig
                0x00000000       0x40 ..\obj\stm32f4xx_i2c.o
 .text.I2C_NACKPositionConfig
                0x00000000       0x40 ..\obj\stm32f4xx_i2c.o
 .text.I2C_SMBusAlertConfig
                0x00000000       0x40 ..\obj\stm32f4xx_i2c.o
 .text.I2C_ARPCmd
                0x00000000       0x40 ..\obj\stm32f4xx_i2c.o
 .text.I2C_SendData
                0x00000000       0x20 ..\obj\stm32f4xx_i2c.o
 .text.I2C_ReceiveData
                0x00000000       0x1c ..\obj\stm32f4xx_i2c.o
 .text.I2C_TransmitPEC
                0x00000000       0x40 ..\obj\stm32f4xx_i2c.o
 .text.I2C_PECPositionConfig
                0x00000000       0x40 ..\obj\stm32f4xx_i2c.o
 .text.I2C_CalculatePEC
                0x00000000       0x40 ..\obj\stm32f4xx_i2c.o
 .text.I2C_GetPEC
                0x00000000       0x24 ..\obj\stm32f4xx_i2c.o
 .text.I2C_DMACmd
                0x00000000       0x40 ..\obj\stm32f4xx_i2c.o
 .text.I2C_DMALastTransferCmd
                0x00000000       0x40 ..\obj\stm32f4xx_i2c.o
 .text.I2C_ReadRegister
                0x00000000       0x30 ..\obj\stm32f4xx_i2c.o
 .text.I2C_ITConfig
                0x00000000       0x48 ..\obj\stm32f4xx_i2c.o
 .text.I2C_CheckEvent
                0x00000000       0x70 ..\obj\stm32f4xx_i2c.o
 .text.I2C_GetLastEvent
                0x00000000       0x4c ..\obj\stm32f4xx_i2c.o
 .text.I2C_GetFlagStatus
                0x00000000       0x78 ..\obj\stm32f4xx_i2c.o
 .text.I2C_ClearFlag
                0x00000000       0x30 ..\obj\stm32f4xx_i2c.o
 .text.I2C_GetITStatus
                0x00000000       0x64 ..\obj\stm32f4xx_i2c.o
 .text.I2C_ClearITPendingBit
                0x00000000       0x30 ..\obj\stm32f4xx_i2c.o
 .text          0x00000000        0x0 ..\obj\yume_hexapod_cmd.o
 .data          0x00000000        0x0 ..\obj\yume_hexapod_cmd.o
 .bss           0x00000000        0x0 ..\obj\yume_hexapod_cmd.o
 .text.mov_curve_right
                0x00000000      0x8fc ..\obj\yume_hexapod_cmd.o
 .text.mov_curve_left
                0x00000000      0x94c ..\obj\yume_hexapod_cmd.o
 .text.mov_askew_right_transition
                0x00000000      0x5f0 ..\obj\yume_hexapod_cmd.o
 .text.mov_askew_right
                0x00000000      0x860 ..\obj\yume_hexapod_cmd.o
 .text.mov_askew_left_transition
                0x00000000      0x6dc ..\obj\yume_hexapod_cmd.o
 .text.mov_askew_left
                0x00000000      0x860 ..\obj\yume_hexapod_cmd.o
 .text.mov_fwd_ripple_gait
                0x00000000      0x7c8 ..\obj\yume_hexapod_cmd.o
 .text.mov_bwd_ripple_gait
                0x00000000      0xc20 ..\obj\yume_hexapod_cmd.o
 .text.mov_fwd_wave_gait
                0x00000000     0x1290 ..\obj\yume_hexapod_cmd.o
 .text.mov_toggle_clearance
                0x00000000      0x110 ..\obj\yume_hexapod_cmd.o
 .text.PID_curve_right
                0x00000000       0x54 ..\obj\yume_hexapod_cmd.o
 .text.PID_curve_left
                0x00000000       0x54 ..\obj\yume_hexapod_cmd.o
 .text.INV_KINE_TEST
                0x00000000       0xf8 ..\obj\yume_hexapod_cmd.o
 .text.YUME_Celebrate_Ver2
                0x00000000      0x5c8 ..\obj\yume_hexapod_cmd.o
 .text          0x00000000        0x0 ..\obj\yume_dynamixel_xl_320.o
 .data          0x00000000        0x0 ..\obj\yume_dynamixel_xl_320.o
 .bss           0x00000000        0x0 ..\obj\yume_dynamixel_xl_320.o
 .text.Dynamixel_USART1_Init
                0x00000000      0x178 ..\obj\yume_dynamixel_xl_320.o
 .text.DynamixelSend
                0x00000000       0x48 ..\obj\yume_dynamixel_xl_320.o
 .text.Dynamx_Send
                0x00000000       0x30 ..\obj\yume_dynamixel_xl_320.o
 .text.MoveSpeed
                0x00000000       0x6c ..\obj\yume_dynamixel_xl_320.o
 .rodata        0x00000000      0x200 ..\obj\yume_dynamixel_xl_320.o
 .text.CRC_Update
                0x00000000       0xc8 ..\obj\yume_dynamixel_xl_320.o
 .text          0x00000000        0x0 ..\obj\yume_flame_sensor.o
 .data          0x00000000        0x0 ..\obj\yume_flame_sensor.o
 .bss           0x00000000        0x0 ..\obj\yume_flame_sensor.o
 .text.Display_Flame
                0x00000000       0x40 ..\obj\yume_flame_sensor.o
 .text          0x00000000        0x0 ..\obj\misc.o
 .data          0x00000000        0x0 ..\obj\misc.o
 .bss           0x00000000        0x0 ..\obj\misc.o
 .text.NVIC_PriorityGroupConfig
                0x00000000       0x28 ..\obj\misc.o
 .text.NVIC_SetVectorTable
                0x00000000       0x2c ..\obj\misc.o
 .text.NVIC_SystemLPConfig
                0x00000000       0x58 ..\obj\misc.o
 .text.SysTick_CLKSourceConfig
                0x00000000       0x4c ..\obj\misc.o
 .text          0x00000000        0x0 ..\obj\yume_ping_receiver.o
 .data          0x00000000        0x0 ..\obj\yume_ping_receiver.o
 .text.USART3_PutChar
                0x00000000       0x40 ..\obj\yume_ping_receiver.o
 .text.usart_puts
                0x00000000       0x48 ..\obj\yume_ping_receiver.o
 .text          0x00000000        0x0 ..\obj\yume2016_algorithm.o
 .text.Home_HallwaySC_Detector
                0x00000000      0x140 ..\obj\yume2016_algorithm.o
 .text.YUME_FireFighter
                0x00000000       0x50 ..\obj\yume2016_algorithm.o
 .text.YUME_Arbitrary_Start
                0x00000000       0x24 ..\obj\yume2016_algorithm.o
 .text.YUME_Non_Arbitrary_Start
                0x00000000       0x24 ..\obj\yume2016_algorithm.o
 .text.Bump_Avoider
                0x00000000       0xc8 ..\obj\yume2016_algorithm.o
 .text.ReturnTo_Room
                0x00000000       0xfc ..\obj\yume2016_algorithm.o
 .text.Check_Cat_Avoider
                0x00000000       0x48 ..\obj\yume2016_algorithm.o
 .text.FlameTracking
                0x00000000       0x30 ..\obj\yume2016_algorithm.o
 .text.PID_FlameTracking
                0x00000000      0x29c ..\obj\yume2016_algorithm.o
 .text.YUME_FlameSense
                0x00000000       0x84 ..\obj\yume2016_algorithm.o
 .text.FollowFlame_Left
                0x00000000       0x88 ..\obj\yume2016_algorithm.o
 .text.PID_FollowFlame_Left
                0x00000000      0x314 ..\obj\yume2016_algorithm.o
 .text.CurveRight_FlameSense
                0x00000000      0xa4c ..\obj\yume2016_algorithm.o
 .text.CurveLeft_FlameSense
                0x00000000      0xafc ..\obj\yume2016_algorithm.o
 .text.YUME_FireFollow
                0x00000000      0x194 ..\obj\yume2016_algorithm.o
 .text.FollowFlame_Left_New
                0x00000000       0x8c ..\obj\yume2016_algorithm.o
 .text.PID_FollowFlame_Left_New
                0x00000000      0x314 ..\obj\yume2016_algorithm.o
 .text.CurveRight_FlameSense_New
                0x00000000      0xa88 ..\obj\yume2016_algorithm.o
 .text.CurveLeft_FlameSense_New
                0x00000000      0xb38 ..\obj\yume2016_algorithm.o
 .text.RotRight_Angle
                0x00000000       0x70 ..\obj\yume2016_algorithm.o
 .text.RotLeft_Angle
                0x00000000       0x44 ..\obj\yume2016_algorithm.o
 .text.Obstacle_Avoider
                0x00000000       0xc8 ..\obj\yume2016_algorithm.o
 .text.Object_Follow
                0x00000000       0xfc ..\obj\yume2016_algorithm.o
 .text.WallFollow_Tester
                0x00000000      0x3c0 ..\obj\yume2016_algorithm.o
 .text.RoomDetector_Check
                0x00000000       0x6c ..\obj\yume2016_algorithm.o
 .text.YUME_FireFight
                0x00000000      0x480 ..\obj\yume2016_algorithm.o
 .text.RoomType_Init
                0x00000000      0x174 ..\obj\yume2016_algorithm.o
 .text.FollowCandle
                0x00000000       0x9c ..\obj\yume2016_algorithm.o
 .text.CandleScan2
                0x00000000       0xbc ..\obj\yume2016_algorithm.o
 .text.YUME_FlameDemo
                0x00000000      0x184 ..\obj\yume2016_algorithm.o
 .text.YUME_FireFight_Ver2
                0x00000000     0x1258 ..\obj\yume2016_algorithm.o
 .text.YUME_FireFight_Ver3
                0x00000000      0x5e0 ..\obj\yume2016_algorithm.o
 .text.YUME_CandleScanExecute
                0x00000000      0xb48 ..\obj\yume2016_algorithm.o
 .text.YUME_FireFight_Ver4
                0x00000000     0x1230 ..\obj\yume2016_algorithm.o
 .text.FireFight_FrontDetector_Ver2
                0x00000000       0x34 ..\obj\yume2016_algorithm.o
 .text.FireFight_FlameDetector_Ver2
                0x00000000       0x58 ..\obj\yume2016_algorithm.o
 .text.FireFight_CandleStickDetector_Ver2
                0x00000000       0xe8 ..\obj\yume2016_algorithm.o
 .text.FireFight_CandleFireDetector_Ver2
                0x00000000       0x34 ..\obj\yume2016_algorithm.o
 .text          0x00000000        0x0 ..\obj\yume_UV-TRON.o
 .data          0x00000000        0x0 ..\obj\yume_UV-TRON.o
 .bss           0x00000000        0x0 ..\obj\yume_UV-TRON.o
 .text.YUME_UV_TRON_Init
                0x00000000        0xc ..\obj\yume_UV-TRON.o
 .rodata        0x00000000       0x10 ..\obj\yume_UV-TRON.o
 .text.YUME_Display_UV_Stat
                0x00000000       0x44 ..\obj\yume_UV-TRON.o
 .text.UV_GPIO_Init
                0x00000000       0x6c ..\obj\yume_UV-TRON.o
 .text          0x00000000        0x0 ..\obj\yume_interrupt_monitor.o
 .data          0x00000000        0x0 ..\obj\yume_interrupt_monitor.o
 .bss           0x00000000        0x0 ..\obj\yume_interrupt_monitor.o
 .text          0x00000000        0x0 ..\obj\stm32f4xx_tim.o
 .data          0x00000000        0x0 ..\obj\stm32f4xx_tim.o
 .bss           0x00000000        0x0 ..\obj\stm32f4xx_tim.o
 .text.TIM_DeInit
                0x00000000      0x238 ..\obj\stm32f4xx_tim.o
 .text.TIM_TimeBaseStructInit
                0x00000000       0x3c ..\obj\stm32f4xx_tim.o
 .text.TIM_PrescalerConfig
                0x00000000       0x28 ..\obj\stm32f4xx_tim.o
 .text.TIM_CounterModeConfig
                0x00000000       0x38 ..\obj\stm32f4xx_tim.o
 .text.TIM_SetCounter
                0x00000000       0x1c ..\obj\stm32f4xx_tim.o
 .text.TIM_SetAutoreload
                0x00000000       0x1c ..\obj\stm32f4xx_tim.o
 .text.TIM_GetCounter
                0x00000000       0x18 ..\obj\stm32f4xx_tim.o
 .text.TIM_GetPrescaler
                0x00000000       0x1c ..\obj\stm32f4xx_tim.o
 .text.TIM_UpdateDisableConfig
                0x00000000       0x40 ..\obj\stm32f4xx_tim.o
 .text.TIM_UpdateRequestConfig
                0x00000000       0x40 ..\obj\stm32f4xx_tim.o
 .text.TIM_ARRPreloadConfig
                0x00000000       0x40 ..\obj\stm32f4xx_tim.o
 .text.TIM_SelectOnePulseMode
                0x00000000       0x38 ..\obj\stm32f4xx_tim.o
 .text.TIM_SetClockDivision
                0x00000000       0x38 ..\obj\stm32f4xx_tim.o
 .text.TIM_OC4Init
                0x00000000       0xe0 ..\obj\stm32f4xx_tim.o
 .text.TIM_OCStructInit
                0x00000000       0x54 ..\obj\stm32f4xx_tim.o
 .text.TIM_SelectOCxM
                0x00000000       0xc0 ..\obj\stm32f4xx_tim.o
 .text.TIM_SetCompare1
                0x00000000       0x1c ..\obj\stm32f4xx_tim.o
 .text.TIM_SetCompare2
                0x00000000       0x1c ..\obj\stm32f4xx_tim.o
 .text.TIM_SetCompare3
                0x00000000       0x1c ..\obj\stm32f4xx_tim.o
 .text.TIM_SetCompare4
                0x00000000       0x1c ..\obj\stm32f4xx_tim.o
 .text.TIM_ForcedOC1Config
                0x00000000       0x38 ..\obj\stm32f4xx_tim.o
 .text.TIM_ForcedOC2Config
                0x00000000       0x40 ..\obj\stm32f4xx_tim.o
 .text.TIM_ForcedOC3Config
                0x00000000       0x38 ..\obj\stm32f4xx_tim.o
 .text.TIM_ForcedOC4Config
                0x00000000       0x40 ..\obj\stm32f4xx_tim.o
 .text.TIM_OC4PreloadConfig
                0x00000000       0x40 ..\obj\stm32f4xx_tim.o
 .text.TIM_OC1FastConfig
                0x00000000       0x38 ..\obj\stm32f4xx_tim.o
 .text.TIM_OC2FastConfig
                0x00000000       0x40 ..\obj\stm32f4xx_tim.o
 .text.TIM_OC3FastConfig
                0x00000000       0x38 ..\obj\stm32f4xx_tim.o
 .text.TIM_OC4FastConfig
                0x00000000       0x40 ..\obj\stm32f4xx_tim.o
 .text.TIM_ClearOC1Ref
                0x00000000       0x38 ..\obj\stm32f4xx_tim.o
 .text.TIM_ClearOC2Ref
                0x00000000       0x44 ..\obj\stm32f4xx_tim.o
 .text.TIM_ClearOC3Ref
                0x00000000       0x38 ..\obj\stm32f4xx_tim.o
 .text.TIM_ClearOC4Ref
                0x00000000       0x44 ..\obj\stm32f4xx_tim.o
 .text.TIM_OC1PolarityConfig
                0x00000000       0x38 ..\obj\stm32f4xx_tim.o
 .text.TIM_OC1NPolarityConfig
                0x00000000       0x38 ..\obj\stm32f4xx_tim.o
 .text.TIM_OC2PolarityConfig
                0x00000000       0x40 ..\obj\stm32f4xx_tim.o
 .text.TIM_OC2NPolarityConfig
                0x00000000       0x40 ..\obj\stm32f4xx_tim.o
 .text.TIM_OC3PolarityConfig
                0x00000000       0x40 ..\obj\stm32f4xx_tim.o
 .text.TIM_OC3NPolarityConfig
                0x00000000       0x40 ..\obj\stm32f4xx_tim.o
 .text.TIM_OC4PolarityConfig
                0x00000000       0x40 ..\obj\stm32f4xx_tim.o
 .text.TIM_CCxCmd
                0x00000000       0x5c ..\obj\stm32f4xx_tim.o
 .text.TIM_CCxNCmd
                0x00000000       0x5c ..\obj\stm32f4xx_tim.o
 .text.TIM_ICInit
                0x00000000       0xa8 ..\obj\stm32f4xx_tim.o
 .text.TIM_ICStructInit
                0x00000000       0x3c ..\obj\stm32f4xx_tim.o
 .text.TIM_PWMIConfig
                0x00000000       0xc4 ..\obj\stm32f4xx_tim.o
 .text.TIM_GetCapture1
                0x00000000       0x18 ..\obj\stm32f4xx_tim.o
 .text.TIM_GetCapture2
                0x00000000       0x18 ..\obj\stm32f4xx_tim.o
 .text.TIM_GetCapture3
                0x00000000       0x18 ..\obj\stm32f4xx_tim.o
 .text.TIM_GetCapture4
                0x00000000       0x18 ..\obj\stm32f4xx_tim.o
 .text.TIM_SetIC1Prescaler
                0x00000000       0x38 ..\obj\stm32f4xx_tim.o
 .text.TIM_SetIC2Prescaler
                0x00000000       0x3c ..\obj\stm32f4xx_tim.o
 .text.TIM_SetIC3Prescaler
                0x00000000       0x38 ..\obj\stm32f4xx_tim.o
 .text.TIM_SetIC4Prescaler
                0x00000000       0x3c ..\obj\stm32f4xx_tim.o
 .text.TIM_BDTRConfig
                0x00000000       0x50 ..\obj\stm32f4xx_tim.o
 .text.TIM_BDTRStructInit
                0x00000000       0x4c ..\obj\stm32f4xx_tim.o
 .text.TIM_CtrlPWMOutputs
                0x00000000       0x50 ..\obj\stm32f4xx_tim.o
 .text.TIM_SelectCOM
                0x00000000       0x40 ..\obj\stm32f4xx_tim.o
 .text.TIM_CCPreloadControl
                0x00000000       0x40 ..\obj\stm32f4xx_tim.o
 .text.TIM_GenerateEvent
                0x00000000       0x1c ..\obj\stm32f4xx_tim.o
 .text.TIM_GetFlagStatus
                0x00000000       0x40 ..\obj\stm32f4xx_tim.o
 .text.TIM_ClearFlag
                0x00000000       0x24 ..\obj\stm32f4xx_tim.o
 .text.TIM_DMAConfig
                0x00000000       0x28 ..\obj\stm32f4xx_tim.o
 .text.TIM_DMACmd
                0x00000000       0x48 ..\obj\stm32f4xx_tim.o
 .text.TIM_SelectCCDMA
                0x00000000       0x40 ..\obj\stm32f4xx_tim.o
 .text.TIM_InternalClockConfig
                0x00000000       0x24 ..\obj\stm32f4xx_tim.o
 .text.TIM_ITRxExternalClockConfig
                0x00000000       0x30 ..\obj\stm32f4xx_tim.o
 .text.TIM_TIxExternalClockConfig
                0x00000000       0x58 ..\obj\stm32f4xx_tim.o
 .text.TIM_ETRClockMode1Config
                0x00000000       0x54 ..\obj\stm32f4xx_tim.o
 .text.TIM_ETRClockMode2Config
                0x00000000       0x34 ..\obj\stm32f4xx_tim.o
 .text.TIM_SelectInputTrigger
                0x00000000       0x38 ..\obj\stm32f4xx_tim.o
 .text.TIM_SelectOutputTrigger
                0x00000000       0x38 ..\obj\stm32f4xx_tim.o
 .text.TIM_SelectSlaveMode
                0x00000000       0x38 ..\obj\stm32f4xx_tim.o
 .text.TIM_SelectMasterSlaveMode
                0x00000000       0x38 ..\obj\stm32f4xx_tim.o
 .text.TIM_ETRConfig
                0x00000000       0x4c ..\obj\stm32f4xx_tim.o
 .text.TIM_EncoderInterfaceConfig
                0x00000000       0x94 ..\obj\stm32f4xx_tim.o
 .text.TIM_SelectHallSensor
                0x00000000       0x40 ..\obj\stm32f4xx_tim.o
 .text.TIM_RemapConfig
                0x00000000       0x20 ..\obj\stm32f4xx_tim.o
 .text.TI1_Config
                0x00000000       0x80 ..\obj\stm32f4xx_tim.o
 .text.TI2_Config
                0x00000000       0x9c ..\obj\stm32f4xx_tim.o
 .text.TI3_Config
                0x00000000       0x8c ..\obj\stm32f4xx_tim.o
 .text.TI4_Config
                0x00000000       0xa4 ..\obj\stm32f4xx_tim.o
 .text          0x00000000        0x0 C:\Softwares\CooCox\GNU Tools ARM Embedded\4.6 2012q2\arm-none-eabi\lib\armv7e-m\fpu\libm.a(lib_a-s_atan.o)
 .data          0x00000000        0x0 C:\Softwares\CooCox\GNU Tools ARM Embedded\4.6 2012q2\arm-none-eabi\lib\armv7e-m\fpu\libm.a(lib_a-s_atan.o)
 .bss           0x00000000        0x0 C:\Softwares\CooCox\GNU Tools ARM Embedded\4.6 2012q2\arm-none-eabi\lib\armv7e-m\fpu\libm.a(lib_a-s_atan.o)
 .text          0x00000000        0x0 C:\Softwares\CooCox\GNU Tools ARM Embedded\4.6 2012q2\arm-none-eabi\lib\armv7e-m\fpu\libm.a(lib_a-s_cos.o)
 .data          0x00000000        0x0 C:\Softwares\CooCox\GNU Tools ARM Embedded\4.6 2012q2\arm-none-eabi\lib\armv7e-m\fpu\libm.a(lib_a-s_cos.o)
 .bss           0x00000000        0x0 C:\Softwares\CooCox\GNU Tools ARM Embedded\4.6 2012q2\arm-none-eabi\lib\armv7e-m\fpu\libm.a(lib_a-s_cos.o)
 .text          0x00000000        0x0 C:\Softwares\CooCox\GNU Tools ARM Embedded\4.6 2012q2\arm-none-eabi\lib\armv7e-m\fpu\libm.a(lib_a-s_fabs.o)
 .data          0x00000000        0x0 C:\Softwares\CooCox\GNU Tools ARM Embedded\4.6 2012q2\arm-none-eabi\lib\armv7e-m\fpu\libm.a(lib_a-s_fabs.o)
 .bss           0x00000000        0x0 C:\Softwares\CooCox\GNU Tools ARM Embedded\4.6 2012q2\arm-none-eabi\lib\armv7e-m\fpu\libm.a(lib_a-s_fabs.o)
 .text          0x00000000        0x0 C:\Softwares\CooCox\GNU Tools ARM Embedded\4.6 2012q2\arm-none-eabi\lib\armv7e-m\fpu\libm.a(lib_a-s_fmax.o)
 .data          0x00000000        0x0 C:\Softwares\CooCox\GNU Tools ARM Embedded\4.6 2012q2\arm-none-eabi\lib\armv7e-m\fpu\libm.a(lib_a-s_fmax.o)
 .bss           0x00000000        0x0 C:\Softwares\CooCox\GNU Tools ARM Embedded\4.6 2012q2\arm-none-eabi\lib\armv7e-m\fpu\libm.a(lib_a-s_fmax.o)
 .text.fmax     0x00000000       0x54 C:\Softwares\CooCox\GNU Tools ARM Embedded\4.6 2012q2\arm-none-eabi\lib\armv7e-m\fpu\libm.a(lib_a-s_fmax.o)
 .text          0x00000000        0x0 C:\Softwares\CooCox\GNU Tools ARM Embedded\4.6 2012q2\arm-none-eabi\lib\armv7e-m\fpu\libm.a(lib_a-s_fpclassify.o)
 .data          0x00000000        0x0 C:\Softwares\CooCox\GNU Tools ARM Embedded\4.6 2012q2\arm-none-eabi\lib\armv7e-m\fpu\libm.a(lib_a-s_fpclassify.o)
 .bss           0x00000000        0x0 C:\Softwares\CooCox\GNU Tools ARM Embedded\4.6 2012q2\arm-none-eabi\lib\armv7e-m\fpu\libm.a(lib_a-s_fpclassify.o)
 .text          0x00000000        0x0 C:\Softwares\CooCox\GNU Tools ARM Embedded\4.6 2012q2\arm-none-eabi\lib\armv7e-m\fpu\libm.a(lib_a-s_sin.o)
 .data          0x00000000        0x0 C:\Softwares\CooCox\GNU Tools ARM Embedded\4.6 2012q2\arm-none-eabi\lib\armv7e-m\fpu\libm.a(lib_a-s_sin.o)
 .bss           0x00000000        0x0 C:\Softwares\CooCox\GNU Tools ARM Embedded\4.6 2012q2\arm-none-eabi\lib\armv7e-m\fpu\libm.a(lib_a-s_sin.o)
 .text          0x00000000        0x0 C:\Softwares\CooCox\GNU Tools ARM Embedded\4.6 2012q2\arm-none-eabi\lib\armv7e-m\fpu\libm.a(lib_a-w_acos.o)
 .data          0x00000000        0x0 C:\Softwares\CooCox\GNU Tools ARM Embedded\4.6 2012q2\arm-none-eabi\lib\armv7e-m\fpu\libm.a(lib_a-w_acos.o)
 .bss           0x00000000        0x0 C:\Softwares\CooCox\GNU Tools ARM Embedded\4.6 2012q2\arm-none-eabi\lib\armv7e-m\fpu\libm.a(lib_a-w_acos.o)
 .text          0x00000000        0x0 C:\Softwares\CooCox\GNU Tools ARM Embedded\4.6 2012q2\arm-none-eabi\lib\armv7e-m\fpu\libm.a(lib_a-w_atan2.o)
 .data          0x00000000        0x0 C:\Softwares\CooCox\GNU Tools ARM Embedded\4.6 2012q2\arm-none-eabi\lib\armv7e-m\fpu\libm.a(lib_a-w_atan2.o)
 .bss           0x00000000        0x0 C:\Softwares\CooCox\GNU Tools ARM Embedded\4.6 2012q2\arm-none-eabi\lib\armv7e-m\fpu\libm.a(lib_a-w_atan2.o)
 .text.atan2    0x00000000        0x4 C:\Softwares\CooCox\GNU Tools ARM Embedded\4.6 2012q2\arm-none-eabi\lib\armv7e-m\fpu\libm.a(lib_a-w_atan2.o)
 .text          0x00000000        0x0 C:\Softwares\CooCox\GNU Tools ARM Embedded\4.6 2012q2\arm-none-eabi\lib\armv7e-m\fpu\libm.a(lib_a-w_sqrt.o)
 .data          0x00000000        0x0 C:\Softwares\CooCox\GNU Tools ARM Embedded\4.6 2012q2\arm-none-eabi\lib\armv7e-m\fpu\libm.a(lib_a-w_sqrt.o)
 .bss           0x00000000        0x0 C:\Softwares\CooCox\GNU Tools ARM Embedded\4.6 2012q2\arm-none-eabi\lib\armv7e-m\fpu\libm.a(lib_a-w_sqrt.o)
 .text.sqrt     0x00000000       0xbc C:\Softwares\CooCox\GNU Tools ARM Embedded\4.6 2012q2\arm-none-eabi\lib\armv7e-m\fpu\libm.a(lib_a-w_sqrt.o)
 .rodata.str1.4
                0x00000000        0x8 C:\Softwares\CooCox\GNU Tools ARM Embedded\4.6 2012q2\arm-none-eabi\lib\armv7e-m\fpu\libm.a(lib_a-w_sqrt.o)
 .text          0x00000000        0x0 C:\Softwares\CooCox\GNU Tools ARM Embedded\4.6 2012q2\arm-none-eabi\lib\armv7e-m\fpu\libm.a(lib_a-e_acos.o)
 .data          0x00000000        0x0 C:\Softwares\CooCox\GNU Tools ARM Embedded\4.6 2012q2\arm-none-eabi\lib\armv7e-m\fpu\libm.a(lib_a-e_acos.o)
 .bss           0x00000000        0x0 C:\Softwares\CooCox\GNU Tools ARM Embedded\4.6 2012q2\arm-none-eabi\lib\armv7e-m\fpu\libm.a(lib_a-e_acos.o)
 .text          0x00000000        0x0 C:\Softwares\CooCox\GNU Tools ARM Embedded\4.6 2012q2\arm-none-eabi\lib\armv7e-m\fpu\libm.a(lib_a-e_atan2.o)
 .data          0x00000000        0x0 C:\Softwares\CooCox\GNU Tools ARM Embedded\4.6 2012q2\arm-none-eabi\lib\armv7e-m\fpu\libm.a(lib_a-e_atan2.o)
 .bss           0x00000000        0x0 C:\Softwares\CooCox\GNU Tools ARM Embedded\4.6 2012q2\arm-none-eabi\lib\armv7e-m\fpu\libm.a(lib_a-e_atan2.o)
 .text.__ieee754_atan2
                0x00000000      0x200 C:\Softwares\CooCox\GNU Tools ARM Embedded\4.6 2012q2\arm-none-eabi\lib\armv7e-m\fpu\libm.a(lib_a-e_atan2.o)
 .text          0x00000000        0x0 C:\Softwares\CooCox\GNU Tools ARM Embedded\4.6 2012q2\arm-none-eabi\lib\armv7e-m\fpu\libm.a(lib_a-e_rem_pio2.o)
 .data          0x00000000        0x0 C:\Softwares\CooCox\GNU Tools ARM Embedded\4.6 2012q2\arm-none-eabi\lib\armv7e-m\fpu\libm.a(lib_a-e_rem_pio2.o)
 .bss           0x00000000        0x0 C:\Softwares\CooCox\GNU Tools ARM Embedded\4.6 2012q2\arm-none-eabi\lib\armv7e-m\fpu\libm.a(lib_a-e_rem_pio2.o)
 .text          0x00000000        0x0 C:\Softwares\CooCox\GNU Tools ARM Embedded\4.6 2012q2\arm-none-eabi\lib\armv7e-m\fpu\libm.a(lib_a-e_sqrt.o)
 .data          0x00000000        0x0 C:\Softwares\CooCox\GNU Tools ARM Embedded\4.6 2012q2\arm-none-eabi\lib\armv7e-m\fpu\libm.a(lib_a-e_sqrt.o)
 .bss           0x00000000        0x0 C:\Softwares\CooCox\GNU Tools ARM Embedded\4.6 2012q2\arm-none-eabi\lib\armv7e-m\fpu\libm.a(lib_a-e_sqrt.o)
 .text          0x00000000        0x0 C:\Softwares\CooCox\GNU Tools ARM Embedded\4.6 2012q2\arm-none-eabi\lib\armv7e-m\fpu\libm.a(lib_a-k_cos.o)
 .data          0x00000000        0x0 C:\Softwares\CooCox\GNU Tools ARM Embedded\4.6 2012q2\arm-none-eabi\lib\armv7e-m\fpu\libm.a(lib_a-k_cos.o)
 .bss           0x00000000        0x0 C:\Softwares\CooCox\GNU Tools ARM Embedded\4.6 2012q2\arm-none-eabi\lib\armv7e-m\fpu\libm.a(lib_a-k_cos.o)
 .text          0x00000000        0x0 C:\Softwares\CooCox\GNU Tools ARM Embedded\4.6 2012q2\arm-none-eabi\lib\armv7e-m\fpu\libm.a(lib_a-k_rem_pio2.o)
 .data          0x00000000        0x0 C:\Softwares\CooCox\GNU Tools ARM Embedded\4.6 2012q2\arm-none-eabi\lib\armv7e-m\fpu\libm.a(lib_a-k_rem_pio2.o)
 .bss           0x00000000        0x0 C:\Softwares\CooCox\GNU Tools ARM Embedded\4.6 2012q2\arm-none-eabi\lib\armv7e-m\fpu\libm.a(lib_a-k_rem_pio2.o)
 .text          0x00000000        0x0 C:\Softwares\CooCox\GNU Tools ARM Embedded\4.6 2012q2\arm-none-eabi\lib\armv7e-m\fpu\libm.a(lib_a-k_sin.o)
 .data          0x00000000        0x0 C:\Softwares\CooCox\GNU Tools ARM Embedded\4.6 2012q2\arm-none-eabi\lib\armv7e-m\fpu\libm.a(lib_a-k_sin.o)
 .bss           0x00000000        0x0 C:\Softwares\CooCox\GNU Tools ARM Embedded\4.6 2012q2\arm-none-eabi\lib\armv7e-m\fpu\libm.a(lib_a-k_sin.o)
 .text          0x00000000        0x0 C:\Softwares\CooCox\GNU Tools ARM Embedded\4.6 2012q2\arm-none-eabi\lib\armv7e-m\fpu\libm.a(lib_a-s_floor.o)
 .data          0x00000000        0x0 C:\Softwares\CooCox\GNU Tools ARM Embedded\4.6 2012q2\arm-none-eabi\lib\armv7e-m\fpu\libm.a(lib_a-s_floor.o)
 .bss           0x00000000        0x0 C:\Softwares\CooCox\GNU Tools ARM Embedded\4.6 2012q2\arm-none-eabi\lib\armv7e-m\fpu\libm.a(lib_a-s_floor.o)
 .text          0x00000000        0x0 C:\Softwares\CooCox\GNU Tools ARM Embedded\4.6 2012q2\arm-none-eabi\lib\armv7e-m\fpu\libm.a(lib_a-s_lib_ver.o)
 .data          0x00000000        0x0 C:\Softwares\CooCox\GNU Tools ARM Embedded\4.6 2012q2\arm-none-eabi\lib\armv7e-m\fpu\libm.a(lib_a-s_lib_ver.o)
 .bss           0x00000000        0x0 C:\Softwares\CooCox\GNU Tools ARM Embedded\4.6 2012q2\arm-none-eabi\lib\armv7e-m\fpu\libm.a(lib_a-s_lib_ver.o)
 .text          0x00000000        0x0 C:\Softwares\CooCox\GNU Tools ARM Embedded\4.6 2012q2\arm-none-eabi\lib\armv7e-m\fpu\libm.a(lib_a-s_matherr.o)
 .data          0x00000000        0x0 C:\Softwares\CooCox\GNU Tools ARM Embedded\4.6 2012q2\arm-none-eabi\lib\armv7e-m\fpu\libm.a(lib_a-s_matherr.o)
 .bss           0x00000000        0x0 C:\Softwares\CooCox\GNU Tools ARM Embedded\4.6 2012q2\arm-none-eabi\lib\armv7e-m\fpu\libm.a(lib_a-s_matherr.o)
 .text          0x00000000        0x0 C:\Softwares\CooCox\GNU Tools ARM Embedded\4.6 2012q2\arm-none-eabi\lib\armv7e-m\fpu\libm.a(lib_a-s_nan.o)
 .data          0x00000000        0x0 C:\Softwares\CooCox\GNU Tools ARM Embedded\4.6 2012q2\arm-none-eabi\lib\armv7e-m\fpu\libm.a(lib_a-s_nan.o)
 .bss           0x00000000        0x0 C:\Softwares\CooCox\GNU Tools ARM Embedded\4.6 2012q2\arm-none-eabi\lib\armv7e-m\fpu\libm.a(lib_a-s_nan.o)
 .text          0x00000000        0x0 C:\Softwares\CooCox\GNU Tools ARM Embedded\4.6 2012q2\arm-none-eabi\lib\armv7e-m\fpu\libm.a(lib_a-s_scalbn.o)
 .data          0x00000000        0x0 C:\Softwares\CooCox\GNU Tools ARM Embedded\4.6 2012q2\arm-none-eabi\lib\armv7e-m\fpu\libm.a(lib_a-s_scalbn.o)
 .bss           0x00000000        0x0 C:\Softwares\CooCox\GNU Tools ARM Embedded\4.6 2012q2\arm-none-eabi\lib\armv7e-m\fpu\libm.a(lib_a-s_scalbn.o)
 .text          0x00000000        0x0 C:\Softwares\CooCox\GNU Tools ARM Embedded\4.6 2012q2\arm-none-eabi\lib\armv7e-m\fpu\libm.a(lib_a-s_copysign.o)
 .data          0x00000000        0x0 C:\Softwares\CooCox\GNU Tools ARM Embedded\4.6 2012q2\arm-none-eabi\lib\armv7e-m\fpu\libm.a(lib_a-s_copysign.o)
 .bss           0x00000000        0x0 C:\Softwares\CooCox\GNU Tools ARM Embedded\4.6 2012q2\arm-none-eabi\lib\armv7e-m\fpu\libm.a(lib_a-s_copysign.o)
 .data          0x00000000        0x0 c:/softwares/coocox/gnu tools arm embedded/4.6 2012q2/bin/../lib/gcc/arm-none-eabi/4.6.2/armv7e-m/fpu\libgcc.a(_arm_addsubdf3.o)
 .bss           0x00000000        0x0 c:/softwares/coocox/gnu tools arm embedded/4.6 2012q2/bin/../lib/gcc/arm-none-eabi/4.6.2/armv7e-m/fpu\libgcc.a(_arm_addsubdf3.o)
 .data          0x00000000        0x0 c:/softwares/coocox/gnu tools arm embedded/4.6 2012q2/bin/../lib/gcc/arm-none-eabi/4.6.2/armv7e-m/fpu\libgcc.a(_arm_muldivdf3.o)
 .bss           0x00000000        0x0 c:/softwares/coocox/gnu tools arm embedded/4.6 2012q2/bin/../lib/gcc/arm-none-eabi/4.6.2/armv7e-m/fpu\libgcc.a(_arm_muldivdf3.o)
 .data          0x00000000        0x0 c:/softwares/coocox/gnu tools arm embedded/4.6 2012q2/bin/../lib/gcc/arm-none-eabi/4.6.2/armv7e-m/fpu\libgcc.a(_arm_cmpdf2.o)
 .bss           0x00000000        0x0 c:/softwares/coocox/gnu tools arm embedded/4.6 2012q2/bin/../lib/gcc/arm-none-eabi/4.6.2/armv7e-m/fpu\libgcc.a(_arm_cmpdf2.o)
 .data          0x00000000        0x0 c:/softwares/coocox/gnu tools arm embedded/4.6 2012q2/bin/../lib/gcc/arm-none-eabi/4.6.2/armv7e-m/fpu\libgcc.a(_arm_fixdfsi.o)
 .bss           0x00000000        0x0 c:/softwares/coocox/gnu tools arm embedded/4.6 2012q2/bin/../lib/gcc/arm-none-eabi/4.6.2/armv7e-m/fpu\libgcc.a(_arm_fixdfsi.o)
 .data          0x00000000        0x0 c:/softwares/coocox/gnu tools arm embedded/4.6 2012q2/bin/../lib/gcc/arm-none-eabi/4.6.2/armv7e-m/fpu\libgcc.a(_arm_truncdfsf2.o)
 .bss           0x00000000        0x0 c:/softwares/coocox/gnu tools arm embedded/4.6 2012q2/bin/../lib/gcc/arm-none-eabi/4.6.2/armv7e-m/fpu\libgcc.a(_arm_truncdfsf2.o)
 .text          0x00000000        0x0 C:\Softwares\CooCox\GNU Tools ARM Embedded\4.6 2012q2\arm-none-eabi\lib\armv7e-m\fpu\libc.a(lib_a-errno.o)
 .data          0x00000000        0x0 C:\Softwares\CooCox\GNU Tools ARM Embedded\4.6 2012q2\arm-none-eabi\lib\armv7e-m\fpu\libc.a(lib_a-errno.o)
 .bss           0x00000000        0x0 C:\Softwares\CooCox\GNU Tools ARM Embedded\4.6 2012q2\arm-none-eabi\lib\armv7e-m\fpu\libc.a(lib_a-errno.o)
 .text          0x00000000        0x0 C:\Softwares\CooCox\GNU Tools ARM Embedded\4.6 2012q2\arm-none-eabi\lib\armv7e-m\fpu\libc.a(lib_a-impure.o)
 .data          0x00000000        0x0 C:\Softwares\CooCox\GNU Tools ARM Embedded\4.6 2012q2\arm-none-eabi\lib\armv7e-m\fpu\libc.a(lib_a-impure.o)
 .bss           0x00000000        0x0 C:\Softwares\CooCox\GNU Tools ARM Embedded\4.6 2012q2\arm-none-eabi\lib\armv7e-m\fpu\libc.a(lib_a-impure.o)
 .rodata._global_impure_ptr
                0x00000000        0x4 C:\Softwares\CooCox\GNU Tools ARM Embedded\4.6 2012q2\arm-none-eabi\lib\armv7e-m\fpu\libc.a(lib_a-impure.o)
 .text          0x00000000        0x0 C:\Softwares\CooCox\GNU Tools ARM Embedded\4.6 2012q2\arm-none-eabi\lib\armv7e-m\fpu\libc.a(lib_a-memcpy.o)
 .data          0x00000000        0x0 C:\Softwares\CooCox\GNU Tools ARM Embedded\4.6 2012q2\arm-none-eabi\lib\armv7e-m\fpu\libc.a(lib_a-memcpy.o)
 .bss           0x00000000        0x0 C:\Softwares\CooCox\GNU Tools ARM Embedded\4.6 2012q2\arm-none-eabi\lib\armv7e-m\fpu\libc.a(lib_a-memcpy.o)
 .text          0x00000000        0x0 C:\Softwares\CooCox\GNU Tools ARM Embedded\4.6 2012q2\arm-none-eabi\lib\armv7e-m\fpu\libc.a(lib_a-sprintf.o)
 .data          0x00000000        0x0 C:\Softwares\CooCox\GNU Tools ARM Embedded\4.6 2012q2\arm-none-eabi\lib\armv7e-m\fpu\libc.a(lib_a-sprintf.o)
 .bss           0x00000000        0x0 C:\Softwares\CooCox\GNU Tools ARM Embedded\4.6 2012q2\arm-none-eabi\lib\armv7e-m\fpu\libc.a(lib_a-sprintf.o)
 .text._sprintf_r
                0x00000000       0x44 C:\Softwares\CooCox\GNU Tools ARM Embedded\4.6 2012q2\arm-none-eabi\lib\armv7e-m\fpu\libc.a(lib_a-sprintf.o)
 .text          0x00000000        0x0 C:\Softwares\CooCox\GNU Tools ARM Embedded\4.6 2012q2\arm-none-eabi\lib\armv7e-m\fpu\libc.a(lib_a-strlen.o)
 .data          0x00000000        0x0 C:\Softwares\CooCox\GNU Tools ARM Embedded\4.6 2012q2\arm-none-eabi\lib\armv7e-m\fpu\libc.a(lib_a-strlen.o)
 .bss           0x00000000        0x0 C:\Softwares\CooCox\GNU Tools ARM Embedded\4.6 2012q2\arm-none-eabi\lib\armv7e-m\fpu\libc.a(lib_a-strlen.o)
 .text          0x00000000        0x0 C:\Softwares\CooCox\GNU Tools ARM Embedded\4.6 2012q2\arm-none-eabi\lib\armv7e-m\fpu\libc.a(lib_a-svfprintf.o)
 .data          0x00000000        0x0 C:\Softwares\CooCox\GNU Tools ARM Embedded\4.6 2012q2\arm-none-eabi\lib\armv7e-m\fpu\libc.a(lib_a-svfprintf.o)
 .bss           0x00000000        0x0 C:\Softwares\CooCox\GNU Tools ARM Embedded\4.6 2012q2\arm-none-eabi\lib\armv7e-m\fpu\libc.a(lib_a-svfprintf.o)
 .text          0x00000000        0x0 C:\Softwares\CooCox\GNU Tools ARM Embedded\4.6 2012q2\arm-none-eabi\lib\armv7e-m\fpu\libc.a(lib_a-dtoa.o)
 .data          0x00000000        0x0 C:\Softwares\CooCox\GNU Tools ARM Embedded\4.6 2012q2\arm-none-eabi\lib\armv7e-m\fpu\libc.a(lib_a-dtoa.o)
 .bss           0x00000000        0x0 C:\Softwares\CooCox\GNU Tools ARM Embedded\4.6 2012q2\arm-none-eabi\lib\armv7e-m\fpu\libc.a(lib_a-dtoa.o)
 .text          0x00000000        0x0 C:\Softwares\CooCox\GNU Tools ARM Embedded\4.6 2012q2\arm-none-eabi\lib\armv7e-m\fpu\libc.a(lib_a-locale.o)
 .data          0x00000000        0x0 C:\Softwares\CooCox\GNU Tools ARM Embedded\4.6 2012q2\arm-none-eabi\lib\armv7e-m\fpu\libc.a(lib_a-locale.o)
 .bss           0x00000000        0x0 C:\Softwares\CooCox\GNU Tools ARM Embedded\4.6 2012q2\arm-none-eabi\lib\armv7e-m\fpu\libc.a(lib_a-locale.o)
 .text._setlocale_r
                0x00000000       0x44 C:\Softwares\CooCox\GNU Tools ARM Embedded\4.6 2012q2\arm-none-eabi\lib\armv7e-m\fpu\libc.a(lib_a-locale.o)
 .text.__locale_charset
                0x00000000        0xc C:\Softwares\CooCox\GNU Tools ARM Embedded\4.6 2012q2\arm-none-eabi\lib\armv7e-m\fpu\libc.a(lib_a-locale.o)
 .text.__locale_mb_cur_max
                0x00000000        0xc C:\Softwares\CooCox\GNU Tools ARM Embedded\4.6 2012q2\arm-none-eabi\lib\armv7e-m\fpu\libc.a(lib_a-locale.o)
 .text.__locale_msgcharset
                0x00000000        0xc C:\Softwares\CooCox\GNU Tools ARM Embedded\4.6 2012q2\arm-none-eabi\lib\armv7e-m\fpu\libc.a(lib_a-locale.o)
 .text.__locale_cjk_lang
                0x00000000        0x4 C:\Softwares\CooCox\GNU Tools ARM Embedded\4.6 2012q2\arm-none-eabi\lib\armv7e-m\fpu\libc.a(lib_a-locale.o)
 .text.setlocale
                0x00000000       0x14 C:\Softwares\CooCox\GNU Tools ARM Embedded\4.6 2012q2\arm-none-eabi\lib\armv7e-m\fpu\libc.a(lib_a-locale.o)
 .text.localeconv
                0x00000000        0xc C:\Softwares\CooCox\GNU Tools ARM Embedded\4.6 2012q2\arm-none-eabi\lib\armv7e-m\fpu\libc.a(lib_a-locale.o)
 .data.lc_message_charset
                0x00000000       0x20 C:\Softwares\CooCox\GNU Tools ARM Embedded\4.6 2012q2\arm-none-eabi\lib\armv7e-m\fpu\libc.a(lib_a-locale.o)
 .bss._PathLocale
                0x00000000        0x4 C:\Softwares\CooCox\GNU Tools ARM Embedded\4.6 2012q2\arm-none-eabi\lib\armv7e-m\fpu\libc.a(lib_a-locale.o)
 .bss.__nlocale_changed
                0x00000000        0x4 C:\Softwares\CooCox\GNU Tools ARM Embedded\4.6 2012q2\arm-none-eabi\lib\armv7e-m\fpu\libc.a(lib_a-locale.o)
 .bss.__mlocale_changed
                0x00000000        0x4 C:\Softwares\CooCox\GNU Tools ARM Embedded\4.6 2012q2\arm-none-eabi\lib\armv7e-m\fpu\libc.a(lib_a-locale.o)
 .data.lc_ctype_charset
                0x00000000       0x20 C:\Softwares\CooCox\GNU Tools ARM Embedded\4.6 2012q2\arm-none-eabi\lib\armv7e-m\fpu\libc.a(lib_a-locale.o)
 .data.__mb_cur_max
                0x00000000        0x4 C:\Softwares\CooCox\GNU Tools ARM Embedded\4.6 2012q2\arm-none-eabi\lib\armv7e-m\fpu\libc.a(lib_a-locale.o)
 .text          0x00000000        0x0 C:\Softwares\CooCox\GNU Tools ARM Embedded\4.6 2012q2\arm-none-eabi\lib\armv7e-m\fpu\libc.a(lib_a-mallocr.o)
 .data          0x00000000        0x0 C:\Softwares\CooCox\GNU Tools ARM Embedded\4.6 2012q2\arm-none-eabi\lib\armv7e-m\fpu\libc.a(lib_a-mallocr.o)
 .bss           0x00000000        0x0 C:\Softwares\CooCox\GNU Tools ARM Embedded\4.6 2012q2\arm-none-eabi\lib\armv7e-m\fpu\libc.a(lib_a-mallocr.o)
 .text          0x00000000        0x0 C:\Softwares\CooCox\GNU Tools ARM Embedded\4.6 2012q2\arm-none-eabi\lib\armv7e-m\fpu\libc.a(lib_a-memchr.o)
 .data          0x00000000        0x0 C:\Softwares\CooCox\GNU Tools ARM Embedded\4.6 2012q2\arm-none-eabi\lib\armv7e-m\fpu\libc.a(lib_a-memchr.o)
 .bss           0x00000000        0x0 C:\Softwares\CooCox\GNU Tools ARM Embedded\4.6 2012q2\arm-none-eabi\lib\armv7e-m\fpu\libc.a(lib_a-memchr.o)
 .text          0x00000000        0x0 C:\Softwares\CooCox\GNU Tools ARM Embedded\4.6 2012q2\arm-none-eabi\lib\armv7e-m\fpu\libc.a(lib_a-mlock.o)
 .data          0x00000000        0x0 C:\Softwares\CooCox\GNU Tools ARM Embedded\4.6 2012q2\arm-none-eabi\lib\armv7e-m\fpu\libc.a(lib_a-mlock.o)
 .bss           0x00000000        0x0 C:\Softwares\CooCox\GNU Tools ARM Embedded\4.6 2012q2\arm-none-eabi\lib\armv7e-m\fpu\libc.a(lib_a-mlock.o)
 .text          0x00000000        0x0 C:\Softwares\CooCox\GNU Tools ARM Embedded\4.6 2012q2\arm-none-eabi\lib\armv7e-m\fpu\libc.a(lib_a-mprec.o)
 .data          0x00000000        0x0 C:\Softwares\CooCox\GNU Tools ARM Embedded\4.6 2012q2\arm-none-eabi\lib\armv7e-m\fpu\libc.a(lib_a-mprec.o)
 .bss           0x00000000        0x0 C:\Softwares\CooCox\GNU Tools ARM Embedded\4.6 2012q2\arm-none-eabi\lib\armv7e-m\fpu\libc.a(lib_a-mprec.o)
 .text.__s2b    0x00000000       0x98 C:\Softwares\CooCox\GNU Tools ARM Embedded\4.6 2012q2\arm-none-eabi\lib\armv7e-m\fpu\libc.a(lib_a-mprec.o)
 .text.__ulp    0x00000000       0x54 C:\Softwares\CooCox\GNU Tools ARM Embedded\4.6 2012q2\arm-none-eabi\lib\armv7e-m\fpu\libc.a(lib_a-mprec.o)
 .text.__b2d    0x00000000       0xb8 C:\Softwares\CooCox\GNU Tools ARM Embedded\4.6 2012q2\arm-none-eabi\lib\armv7e-m\fpu\libc.a(lib_a-mprec.o)
 .text.__ratio  0x00000000       0x58 C:\Softwares\CooCox\GNU Tools ARM Embedded\4.6 2012q2\arm-none-eabi\lib\armv7e-m\fpu\libc.a(lib_a-mprec.o)
 .text._mprec_log10
                0x00000000       0x3c C:\Softwares\CooCox\GNU Tools ARM Embedded\4.6 2012q2\arm-none-eabi\lib\armv7e-m\fpu\libc.a(lib_a-mprec.o)
 .text.__copybits
                0x00000000       0x48 C:\Softwares\CooCox\GNU Tools ARM Embedded\4.6 2012q2\arm-none-eabi\lib\armv7e-m\fpu\libc.a(lib_a-mprec.o)
 .text.__any_on
                0x00000000       0x60 C:\Softwares\CooCox\GNU Tools ARM Embedded\4.6 2012q2\arm-none-eabi\lib\armv7e-m\fpu\libc.a(lib_a-mprec.o)
 .rodata.__mprec_tinytens
                0x00000000       0x28 C:\Softwares\CooCox\GNU Tools ARM Embedded\4.6 2012q2\arm-none-eabi\lib\armv7e-m\fpu\libc.a(lib_a-mprec.o)
 .text          0x00000000        0x0 C:\Softwares\CooCox\GNU Tools ARM Embedded\4.6 2012q2\arm-none-eabi\lib\armv7e-m\fpu\libc.a(lib_a-sbrkr.o)
 .data          0x00000000        0x0 C:\Softwares\CooCox\GNU Tools ARM Embedded\4.6 2012q2\arm-none-eabi\lib\armv7e-m\fpu\libc.a(lib_a-sbrkr.o)
 .bss           0x00000000        0x0 C:\Softwares\CooCox\GNU Tools ARM Embedded\4.6 2012q2\arm-none-eabi\lib\armv7e-m\fpu\libc.a(lib_a-sbrkr.o)
 .text          0x00000000        0x0 C:\Softwares\CooCox\GNU Tools ARM Embedded\4.6 2012q2\arm-none-eabi\lib\armv7e-m\fpu\libc.a(lib_a-strcmp.o)
 .data          0x00000000        0x0 C:\Softwares\CooCox\GNU Tools ARM Embedded\4.6 2012q2\arm-none-eabi\lib\armv7e-m\fpu\libc.a(lib_a-strcmp.o)
 .bss           0x00000000        0x0 C:\Softwares\CooCox\GNU Tools ARM Embedded\4.6 2012q2\arm-none-eabi\lib\armv7e-m\fpu\libc.a(lib_a-strcmp.o)
 .text.strcmp   0x00000000       0x80 C:\Softwares\CooCox\GNU Tools ARM Embedded\4.6 2012q2\arm-none-eabi\lib\armv7e-m\fpu\libc.a(lib_a-strcmp.o)
 .text.strcmp_unaligned
                0x00000000      0x15c C:\Softwares\CooCox\GNU Tools ARM Embedded\4.6 2012q2\arm-none-eabi\lib\armv7e-m\fpu\libc.a(lib_a-strcmp.o)
 .text          0x00000000        0x0 C:\Softwares\CooCox\GNU Tools ARM Embedded\4.6 2012q2\arm-none-eabi\lib\armv7e-m\fpu\libc.a(lib_a-svfiprintf.o)
 .data          0x00000000        0x0 C:\Softwares\CooCox\GNU Tools ARM Embedded\4.6 2012q2\arm-none-eabi\lib\armv7e-m\fpu\libc.a(lib_a-svfiprintf.o)
 .bss           0x00000000        0x0 C:\Softwares\CooCox\GNU Tools ARM Embedded\4.6 2012q2\arm-none-eabi\lib\armv7e-m\fpu\libc.a(lib_a-svfiprintf.o)
 .text._svfiprintf_r
                0x00000000      0xa38 C:\Softwares\CooCox\GNU Tools ARM Embedded\4.6 2012q2\arm-none-eabi\lib\armv7e-m\fpu\libc.a(lib_a-svfiprintf.o)
 .rodata.zeroes.6534
                0x00000000       0x10 C:\Softwares\CooCox\GNU Tools ARM Embedded\4.6 2012q2\arm-none-eabi\lib\armv7e-m\fpu\libc.a(lib_a-svfiprintf.o)
 .rodata.str1.4
                0x00000000       0x30 C:\Softwares\CooCox\GNU Tools ARM Embedded\4.6 2012q2\arm-none-eabi\lib\armv7e-m\fpu\libc.a(lib_a-svfiprintf.o)
 .rodata.blanks.6533
                0x00000000       0x10 C:\Softwares\CooCox\GNU Tools ARM Embedded\4.6 2012q2\arm-none-eabi\lib\armv7e-m\fpu\libc.a(lib_a-svfiprintf.o)
 .text          0x00000000        0x0 C:\Softwares\CooCox\GNU Tools ARM Embedded\4.6 2012q2\arm-none-eabi\lib\armv7e-m\fpu\libc.a(lib_a-callocr.o)
 .data          0x00000000        0x0 C:\Softwares\CooCox\GNU Tools ARM Embedded\4.6 2012q2\arm-none-eabi\lib\armv7e-m\fpu\libc.a(lib_a-callocr.o)
 .bss           0x00000000        0x0 C:\Softwares\CooCox\GNU Tools ARM Embedded\4.6 2012q2\arm-none-eabi\lib\armv7e-m\fpu\libc.a(lib_a-callocr.o)
 .text          0x00000000        0x0 C:\Softwares\CooCox\GNU Tools ARM Embedded\4.6 2012q2\arm-none-eabi\lib\armv7e-m\fpu\libc.a(lib_a-freer.o)
 .data          0x00000000        0x0 C:\Softwares\CooCox\GNU Tools ARM Embedded\4.6 2012q2\arm-none-eabi\lib\armv7e-m\fpu\libc.a(lib_a-freer.o)
 .bss           0x00000000        0x0 C:\Softwares\CooCox\GNU Tools ARM Embedded\4.6 2012q2\arm-none-eabi\lib\armv7e-m\fpu\libc.a(lib_a-freer.o)
 .text          0x00000000        0x0 C:\Softwares\CooCox\GNU Tools ARM Embedded\4.6 2012q2\arm-none-eabi\lib\armv7e-m\fpu\libc.a(lib_a-memmove.o)
 .data          0x00000000        0x0 C:\Softwares\CooCox\GNU Tools ARM Embedded\4.6 2012q2\arm-none-eabi\lib\armv7e-m\fpu\libc.a(lib_a-memmove.o)
 .bss           0x00000000        0x0 C:\Softwares\CooCox\GNU Tools ARM Embedded\4.6 2012q2\arm-none-eabi\lib\armv7e-m\fpu\libc.a(lib_a-memmove.o)
 .text          0x00000000        0x0 C:\Softwares\CooCox\GNU Tools ARM Embedded\4.6 2012q2\arm-none-eabi\lib\armv7e-m\fpu\libc.a(lib_a-memset.o)
 .data          0x00000000        0x0 C:\Softwares\CooCox\GNU Tools ARM Embedded\4.6 2012q2\arm-none-eabi\lib\armv7e-m\fpu\libc.a(lib_a-memset.o)
 .bss           0x00000000        0x0 C:\Softwares\CooCox\GNU Tools ARM Embedded\4.6 2012q2\arm-none-eabi\lib\armv7e-m\fpu\libc.a(lib_a-memset.o)
 .text          0x00000000        0x0 C:\Softwares\CooCox\GNU Tools ARM Embedded\4.6 2012q2\arm-none-eabi\lib\armv7e-m\fpu\libc.a(lib_a-reallocr.o)
 .data          0x00000000        0x0 C:\Softwares\CooCox\GNU Tools ARM Embedded\4.6 2012q2\arm-none-eabi\lib\armv7e-m\fpu\libc.a(lib_a-reallocr.o)
 .bss           0x00000000        0x0 C:\Softwares\CooCox\GNU Tools ARM Embedded\4.6 2012q2\arm-none-eabi\lib\armv7e-m\fpu\libc.a(lib_a-reallocr.o)
 .text          0x00000000        0x0 C:\Softwares\CooCox\GNU Tools ARM Embedded\4.6 2012q2\arm-none-eabi\lib\armv7e-m\fpu\libc.a(lib_a-reent.o)
 .data          0x00000000        0x0 C:\Softwares\CooCox\GNU Tools ARM Embedded\4.6 2012q2\arm-none-eabi\lib\armv7e-m\fpu\libc.a(lib_a-reent.o)
 .bss           0x00000000        0x0 C:\Softwares\CooCox\GNU Tools ARM Embedded\4.6 2012q2\arm-none-eabi\lib\armv7e-m\fpu\libc.a(lib_a-reent.o)
 .text.cleanup_glue
                0x00000000       0x1c C:\Softwares\CooCox\GNU Tools ARM Embedded\4.6 2012q2\arm-none-eabi\lib\armv7e-m\fpu\libc.a(lib_a-reent.o)
 .text._reclaim_reent
                0x00000000       0x90 C:\Softwares\CooCox\GNU Tools ARM Embedded\4.6 2012q2\arm-none-eabi\lib\armv7e-m\fpu\libc.a(lib_a-reent.o)
 .text._wrapup_reent
                0x00000000       0x40 C:\Softwares\CooCox\GNU Tools ARM Embedded\4.6 2012q2\arm-none-eabi\lib\armv7e-m\fpu\libc.a(lib_a-reent.o)
 .data          0x00000000        0x0 c:/softwares/coocox/gnu tools arm embedded/4.6 2012q2/bin/../lib/gcc/arm-none-eabi/4.6.2/armv7e-m/fpu\libgcc.a(_aeabi_uldivmod.o)
 .bss           0x00000000        0x0 c:/softwares/coocox/gnu tools arm embedded/4.6 2012q2/bin/../lib/gcc/arm-none-eabi/4.6.2/armv7e-m/fpu\libgcc.a(_aeabi_uldivmod.o)
 .data          0x00000000        0x0 c:/softwares/coocox/gnu tools arm embedded/4.6 2012q2/bin/../lib/gcc/arm-none-eabi/4.6.2/armv7e-m/fpu\libgcc.a(bpabi.o)
 .bss           0x00000000        0x0 c:/softwares/coocox/gnu tools arm embedded/4.6 2012q2/bin/../lib/gcc/arm-none-eabi/4.6.2/armv7e-m/fpu\libgcc.a(bpabi.o)
 .ARM.extab     0x00000000        0x0 c:/softwares/coocox/gnu tools arm embedded/4.6 2012q2/bin/../lib/gcc/arm-none-eabi/4.6.2/armv7e-m/fpu\libgcc.a(bpabi.o)
 .data          0x00000000        0x0 c:/softwares/coocox/gnu tools arm embedded/4.6 2012q2/bin/../lib/gcc/arm-none-eabi/4.6.2/armv7e-m/fpu\libgcc.a(unwind-arm.o)
 .bss           0x00000000        0x0 c:/softwares/coocox/gnu tools arm embedded/4.6 2012q2/bin/../lib/gcc/arm-none-eabi/4.6.2/armv7e-m/fpu\libgcc.a(unwind-arm.o)
 .data          0x00000000        0x0 c:/softwares/coocox/gnu tools arm embedded/4.6 2012q2/bin/../lib/gcc/arm-none-eabi/4.6.2/armv7e-m/fpu\libgcc.a(libunwind.o)
 .bss           0x00000000        0x0 c:/softwares/coocox/gnu tools arm embedded/4.6 2012q2/bin/../lib/gcc/arm-none-eabi/4.6.2/armv7e-m/fpu\libgcc.a(libunwind.o)
 .data          0x00000000        0x0 c:/softwares/coocox/gnu tools arm embedded/4.6 2012q2/bin/../lib/gcc/arm-none-eabi/4.6.2/armv7e-m/fpu\libgcc.a(pr-support.o)
 .bss           0x00000000        0x0 c:/softwares/coocox/gnu tools arm embedded/4.6 2012q2/bin/../lib/gcc/arm-none-eabi/4.6.2/armv7e-m/fpu\libgcc.a(pr-support.o)
 .data          0x00000000        0x0 c:/softwares/coocox/gnu tools arm embedded/4.6 2012q2/bin/../lib/gcc/arm-none-eabi/4.6.2/armv7e-m/fpu\libgcc.a(_dvmd_tls.o)
 .bss           0x00000000        0x0 c:/softwares/coocox/gnu tools arm embedded/4.6 2012q2/bin/../lib/gcc/arm-none-eabi/4.6.2/armv7e-m/fpu\libgcc.a(_dvmd_tls.o)
 .data          0x00000000        0x0 c:/softwares/coocox/gnu tools arm embedded/4.6 2012q2/bin/../lib/gcc/arm-none-eabi/4.6.2/armv7e-m/fpu\libgcc.a(_divdi3.o)
 .bss           0x00000000        0x0 c:/softwares/coocox/gnu tools arm embedded/4.6 2012q2/bin/../lib/gcc/arm-none-eabi/4.6.2/armv7e-m/fpu\libgcc.a(_divdi3.o)
 .ARM.extab     0x00000000        0x0 c:/softwares/coocox/gnu tools arm embedded/4.6 2012q2/bin/../lib/gcc/arm-none-eabi/4.6.2/armv7e-m/fpu\libgcc.a(_divdi3.o)
 .data          0x00000000        0x0 c:/softwares/coocox/gnu tools arm embedded/4.6 2012q2/bin/../lib/gcc/arm-none-eabi/4.6.2/armv7e-m/fpu\libgcc.a(_udivdi3.o)
 .bss           0x00000000        0x0 c:/softwares/coocox/gnu tools arm embedded/4.6 2012q2/bin/../lib/gcc/arm-none-eabi/4.6.2/armv7e-m/fpu\libgcc.a(_udivdi3.o)
 .ARM.extab     0x00000000        0x0 c:/softwares/coocox/gnu tools arm embedded/4.6 2012q2/bin/../lib/gcc/arm-none-eabi/4.6.2/armv7e-m/fpu\libgcc.a(_udivdi3.o)

Memory Configuration

Name             Origin             Length             Attributes
rom              0x08000000         0x00100000         xr
ram              0x20000000         0x00020000         xrw
ram1             0x10000000         0x00010000         xrw
*default*        0x00000000         0xffffffff

Linker script and memory map

                0x20020000                _eram = 0x20020000

.text           0x08000000    0x3680c
 *(.isr_vector)
 .isr_vector    0x08000000      0x188 ..\obj\startup_stm32f4xx.o
                0x08000000                g_pfnVectors
 *(.text*)
 .text.Bumper_Init
                0x08000188       0xd4 ..\obj\yume_bumper.o
                0x08000188                Bumper_Init
 .text.GetBumper
                0x0800025c       0x44 ..\obj\yume_bumper.o
                0x0800025c                GetBumper
 .text.Display_Bumper_Stat
                0x080002a0      0x124 ..\obj\yume_bumper.o
                0x080002a0                Display_Bumper_Stat
 .text.Sensor_Menu
                0x080003c4      0x118 ..\obj\yume_bumper.o
                0x080003c4                Sensor_Menu
 .text.RS_off   0x080004dc       0x18 ..\obj\yume_lcd.o
                0x080004dc                RS_off
 .text.RS_on    0x080004f4       0x18 ..\obj\yume_lcd.o
                0x080004f4                RS_on
 .text.EN_off   0x0800050c       0x18 ..\obj\yume_lcd.o
                0x0800050c                EN_off
 .text.EN_on    0x08000524       0x18 ..\obj\yume_lcd.o
                0x08000524                EN_on
 .text.D4_off   0x0800053c       0x18 ..\obj\yume_lcd.o
                0x0800053c                D4_off
 .text.D4_on    0x08000554       0x18 ..\obj\yume_lcd.o
                0x08000554                D4_on
 .text.D5_off   0x0800056c       0x18 ..\obj\yume_lcd.o
                0x0800056c                D5_off
 .text.D5_on    0x08000584       0x18 ..\obj\yume_lcd.o
                0x08000584                D5_on
 .text.D6_off   0x0800059c       0x18 ..\obj\yume_lcd.o
                0x0800059c                D6_off
 .text.D6_on    0x080005b4       0x18 ..\obj\yume_lcd.o
                0x080005b4                D6_on
 .text.D7_off   0x080005cc       0x18 ..\obj\yume_lcd.o
                0x080005cc                D7_off
 .text.D7_on    0x080005e4       0x18 ..\obj\yume_lcd.o
                0x080005e4                D7_on
 .text.lcd_write_nible
                0x080005fc       0x6c ..\obj\yume_lcd.o
                0x080005fc                lcd_write_nible
 .text.lcd_write_byte
                0x08000668       0x38 ..\obj\yume_lcd.o
                0x08000668                lcd_write_byte
 .text.lcd_write_cmd_nible
                0x080006a0       0x20 ..\obj\yume_lcd.o
                0x080006a0                lcd_write_cmd_nible
 .text.lcd_write_data_byte
                0x080006c0       0x20 ..\obj\yume_lcd.o
                0x080006c0                lcd_write_data_byte
 .text.lcd_write_cmd_byte
                0x080006e0       0x34 ..\obj\yume_lcd.o
                0x080006e0                lcd_write_cmd_byte
 .text.YUME_LCD_Init
                0x08000714       0xb4 ..\obj\yume_lcd.o
                0x08000714                YUME_LCD_Init
 .text.lcd_putch
                0x080007c8       0x1c ..\obj\yume_lcd.o
                0x080007c8                lcd_putch
 .text.lcd_putstr
                0x080007e4       0x2c ..\obj\yume_lcd.o
                0x080007e4                lcd_putstr
 .text.lcd_gotoxy
                0x08000810       0x68 ..\obj\yume_lcd.o
                0x08000810                lcd_gotoxy
 .text.lcd_display_clear
                0x08000878       0x10 ..\obj\yume_lcd.o
                0x08000878                lcd_display_clear
 .text.lcd_cursor_off_blink_off
                0x08000888       0x1c ..\obj\yume_lcd.o
                0x08000888                lcd_cursor_off_blink_off
 .text.RotSwitch_Init
                0x080008a4      0x150 ..\obj\yume_rotary_switch.o
                0x080008a4                RotSwitch_Init
 .text.RotSwitch_Sampling
                0x080009f4      0x15c ..\obj\yume_rotary_switch.o
                0x080009f4                RotSwitch_Sampling
 .text.Display_MODE
                0x08000b50      0x230 ..\obj\yume_rotary_switch.o
                0x08000b50                Display_MODE
 .text.Display_TCS3200_Data
                0x08000d80      0x1d4 ..\obj\yume_tcs3200_receiver.o
                0x08000d80                Display_TCS3200_Data
 .text.Display_Tracer_Data
                0x08000f54      0x188 ..\obj\yume_tcs3200_receiver.o
                0x08000f54                Display_Tracer_Data
 .text.Display_TCS3200_Rule
                0x080010dc       0xf8 ..\obj\yume_tcs3200_receiver.o
                0x080010dc                Display_TCS3200_Rule
 .text.TCS3200_Calibration
                0x080011d4      0x45c ..\obj\yume_tcs3200_receiver.o
                0x080011d4                TCS3200_Calibration
 .text.TCS3200_Cal_DisplayStat
                0x08001630      0x250 ..\obj\yume_tcs3200_receiver.o
                0x08001630                TCS3200_Cal_DisplayStat
 .text.Tracer_Calibration
                0x08001880      0x384 ..\obj\yume_tcs3200_receiver.o
                0x08001880                Tracer_Calibration
 .text.Tracer_Cal_DisplayStat
                0x08001c04      0x1cc ..\obj\yume_tcs3200_receiver.o
                0x08001c04                Tracer_Cal_DisplayStat
 .text.Hybrid_TCS3200Tracer_MainMenu
                0x08001dd0      0x3c0 ..\obj\yume_tcs3200_receiver.o
                0x08001dd0                Hybrid_TCS3200Tracer_MainMenu
 .text.Display_Threshold
                0x08002190      0x174 ..\obj\yume_tcs3200_receiver.o
                0x08002190                Display_Threshold
 .text.USART_Init
                0x08002304      0x1ac ..\obj\stm32f4xx_usart.o
                0x08002304                USART_Init
 .text.USART_Cmd
                0x080024b0       0x40 ..\obj\stm32f4xx_usart.o
                0x080024b0                USART_Cmd
 .text.USART_SendData
                0x080024f0       0x28 ..\obj\stm32f4xx_usart.o
                0x080024f0                USART_SendData
 .text.USART_ITConfig
                0x08002518       0xa4 ..\obj\stm32f4xx_usart.o
                0x08002518                USART_ITConfig
 .text.USART_GetFlagStatus
                0x080025bc       0x40 ..\obj\stm32f4xx_usart.o
                0x080025bc                USART_GetFlagStatus
 .text.USART_GetITStatus
                0x080025fc       0xc4 ..\obj\stm32f4xx_usart.o
                0x080025fc                USART_GetITStatus
 .text.TIM2_IRQHandler
                0x080026c0      0x180 ..\obj\yume_articulated_manipulator.o
                0x080026c0                TIM2_IRQHandler
 .text.USART1_Init
                0x08002840      0x178 ..\obj\yume_usart_comm.o
                0x08002840                USART1_Init
 .text.USART1_IRQHandler
                0x080029b8      0x19c ..\obj\yume_usart_comm.o
                0x080029b8                USART1_IRQHandler
 .text.USART2_Init
                0x08002b54      0x178 ..\obj\yume_usart_comm.o
                0x08002b54                USART2_Init
 .text.USART2_IRQHandler
                0x08002ccc       0xb8 ..\obj\yume_usart_comm.o
                0x08002ccc                USART2_IRQHandler
 .text.UART4_Init
                0x08002d84      0x178 ..\obj\yume_usart_comm.o
                0x08002d84                UART4_Init
 .text.UART4_IRQHandler
                0x08002efc       0x18 ..\obj\yume_usart_comm.o
                0x08002efc                UART4_IRQHandler
 .text.UART5_Init
                0x08002f14      0x1e0 ..\obj\yume_usart_comm.o
                0x08002f14                UART5_Init
 .text.UART5_IRQHandler
                0x080030f4      0x38c ..\obj\yume_usart_comm.o
                0x080030f4                UART5_IRQHandler
 .text.USART6_Init
                0x08003480      0x178 ..\obj\yume_usart_comm.o
                0x08003480                USART6_Init
 .text.USART6_IRQHandler
                0x080035f8       0xf0 ..\obj\yume_usart_comm.o
                0x080035f8                USART6_IRQHandler
 .text.Sendto_PC
                0x080036e8       0x18 ..\obj\yume_usart_comm.o
                0x080036e8                Sendto_PC
 .text.TCS3200_Transmit
                0x08003700       0x30 ..\obj\yume_usart_comm.o
                0x08003700                TCS3200_Transmit
 .text.Send_FlameSense
                0x08003730       0x78 ..\obj\yume_usart_comm.o
                0x08003730                Send_FlameSense
 .text.Display_FlameSense
                0x080037a8      0x478 ..\obj\yume_usart_comm.o
                0x080037a8                Display_FlameSense
 .text.Default_Reset_Handler
                0x08003c20       0x78 ..\obj\startup_stm32f4xx.o
                0x08003c20                Default_Reset_Handler
                0x08003c20                Reset_Handler
 .text.Default_Handler
                0x08003c98        0x8 ..\obj\startup_stm32f4xx.o
                0x08003c98                RTC_Alarm_IRQHandler
                0x08003c98                HASH_RNG_IRQHandler
                0x08003c98                EXTI2_IRQHandler
                0x08003c98                TIM8_CC_IRQHandler
                0x08003c98                DebugMon_Handler
                0x08003c98                TIM1_CC_IRQHandler
                0x08003c98                DMA2_Stream5_IRQHandler
                0x08003c98                HardFault_Handler
                0x08003c98                DMA1_Stream5_IRQHandler
                0x08003c98                PVD_IRQHandler
                0x08003c98                SDIO_IRQHandler
                0x08003c98                TAMP_STAMP_IRQHandler
                0x08003c98                PendSV_Handler
                0x08003c98                NMI_Handler
                0x08003c98                CAN2_RX1_IRQHandler
                0x08003c98                EXTI3_IRQHandler
                0x08003c98                TIM8_TRG_COM_TIM14_IRQHandler
                0x08003c98                TIM1_UP_TIM10_IRQHandler
                0x08003c98                TIM8_UP_TIM13_IRQHandler
                0x08003c98                I2C3_ER_IRQHandler
                0x08003c98                EXTI0_IRQHandler
                0x08003c98                I2C2_EV_IRQHandler
                0x08003c98                DMA1_Stream2_IRQHandler
                0x08003c98                CAN1_RX0_IRQHandler
                0x08003c98                FPU_IRQHandler
                0x08003c98                OTG_HS_WKUP_IRQHandler
                0x08003c98                UsageFault_Handler
                0x08003c98                CAN2_SCE_IRQHandler
                0x08003c98                DMA2_Stream2_IRQHandler
                0x08003c98                SPI1_IRQHandler
                0x08003c98                TIM6_DAC_IRQHandler
                0x08003c98                TIM1_BRK_TIM9_IRQHandler
                0x08003c98                DCMI_IRQHandler
                0x08003c98                CAN2_RX0_IRQHandler
                0x08003c98                DMA2_Stream3_IRQHandler
                0x08003c98                CRYP_IRQHandler
                0x08003c98                CAN1_RX1_IRQHandler
                0x08003c98                DMA2_Stream0_IRQHandler
                0x08003c98                TIM4_IRQHandler
                0x08003c98                I2C1_EV_IRQHandler
                0x08003c98                DMA1_Stream6_IRQHandler
                0x08003c98                DMA1_Stream1_IRQHandler
                0x08003c98                RCC_IRQHandler
                0x08003c98                TIM8_BRK_TIM12_IRQHandler
                0x08003c98                EXTI15_10_IRQHandler
                0x08003c98                ADC_IRQHandler
                0x08003c98                DMA1_Stream7_IRQHandler
                0x08003c98                TIM7_IRQHandler
                0x08003c98                CAN2_TX_IRQHandler
                0x08003c98                DMA2_Stream7_IRQHandler
                0x08003c98                I2C3_EV_IRQHandler
                0x08003c98                EXTI9_5_IRQHandler
                0x08003c98                RTC_WKUP_IRQHandler
                0x08003c98                ETH_WKUP_IRQHandler
                0x08003c98                SPI2_IRQHandler
                0x08003c98                OTG_HS_EP1_IN_IRQHandler
                0x08003c98                MemManage_Handler
                0x08003c98                DMA1_Stream0_IRQHandler
                0x08003c98                CAN1_TX_IRQHandler
                0x08003c98                SVC_Handler
                0x08003c98                EXTI4_IRQHandler
                0x08003c98                FSMC_IRQHandler
                0x08003c98                ETH_IRQHandler
                0x08003c98                OTG_HS_EP1_OUT_IRQHandler
                0x08003c98                WWDG_IRQHandler
                0x08003c98                OTG_FS_WKUP_IRQHandler
                0x08003c98                TIM1_TRG_COM_TIM11_IRQHandler
                0x08003c98                OTG_HS_IRQHandler
                0x08003c98                EXTI1_IRQHandler
                0x08003c98                I2C2_ER_IRQHandler
                0x08003c98                DMA2_Stream1_IRQHandler
                0x08003c98                CAN1_SCE_IRQHandler
                0x08003c98                FLASH_IRQHandler
                0x08003c98                DMA2_Stream4_IRQHandler
                0x08003c98                BusFault_Handler
                0x08003c98                OTG_FS_IRQHandler
                0x08003c98                SPI3_IRQHandler
                0x08003c98                DMA1_Stream4_IRQHandler
                0x08003c98                I2C1_ER_IRQHandler
                0x08003c98                DMA2_Stream6_IRQHandler
                0x08003c98                DMA1_Stream3_IRQHandler
 .text.PushTo_Burst
                0x08003ca0      0x128 ..\obj\yume_extinguisher.o
                0x08003ca0                PushTo_Burst
 .text.main     0x08003dc8      0x50c ..\obj\main.o
                0x08003dc8                main
 .text.YUME_Initialization
                0x080042d4      0x2f4 ..\obj\main.o
                0x080042d4                YUME_Initialization
 .text.RCC_GetClocksFreq
                0x080045c8      0x1d0 ..\obj\stm32f4xx_rcc.o
                0x080045c8                RCC_GetClocksFreq
 .text.RCC_AHB1PeriphClockCmd
                0x08004798       0x58 ..\obj\stm32f4xx_rcc.o
                0x08004798                RCC_AHB1PeriphClockCmd
 .text.RCC_APB1PeriphClockCmd
                0x080047f0       0x58 ..\obj\stm32f4xx_rcc.o
                0x080047f0                RCC_APB1PeriphClockCmd
 .text.RCC_APB2PeriphClockCmd
                0x08004848       0x58 ..\obj\stm32f4xx_rcc.o
                0x08004848                RCC_APB2PeriphClockCmd
 .text.YUME_CMPS11_Init
                0x080048a0        0xc ..\obj\yume_cmps11.o
                0x080048a0                YUME_CMPS11_Init
 .text.YUME_BLDC_Init
                0x080048ac       0x18 ..\obj\yume_bldc_fan.o
                0x080048ac                YUME_BLDC_Init
 .text.YUME_BLDC_Fight
                0x080048c4       0x2c ..\obj\yume_bldc_fan.o
                0x080048c4                YUME_BLDC_Fight
 .text.TIM4_PWM_Init
                0x080048f0      0x14c ..\obj\yume_bldc_fan.o
                0x080048f0                TIM4_PWM_Init
 .text.ADC_Init
                0x08004a3c       0xb8 ..\obj\stm32f4xx_adc.o
                0x08004a3c                ADC_Init
 .text.ADC_CommonInit
                0x08004af4       0x5c ..\obj\stm32f4xx_adc.o
                0x08004af4                ADC_CommonInit
 .text.ADC_Cmd  0x08004b50       0x38 ..\obj\stm32f4xx_adc.o
                0x08004b50                ADC_Cmd
 .text.ADC_RegularChannelConfig
                0x08004b88      0x1bc ..\obj\stm32f4xx_adc.o
                0x08004b88                ADC_RegularChannelConfig
 .text.ADC_SoftwareStartConv
                0x08004d44       0x20 ..\obj\stm32f4xx_adc.o
                0x08004d44                ADC_SoftwareStartConv
 .text.ADC_ContinuousModeCmd
                0x08004d64       0x38 ..\obj\stm32f4xx_adc.o
                0x08004d64                ADC_ContinuousModeCmd
 .text.ADC_GetConversionValue
                0x08004d9c       0x1c ..\obj\stm32f4xx_adc.o
                0x08004d9c                ADC_GetConversionValue
 .text.YUME_Initial_Setup
                0x08004db8       0xe0 ..\obj\yume_utilities.o
                0x08004db8                YUME_Initial_Setup
 .text.NVIC_SetPriority
                0x08004e98       0x5c ..\obj\yume_systick_delay.o
 .text.SysTick_Config
                0x08004ef4       0x64 ..\obj\yume_systick_delay.o
 .text.SysTick_Init
                0x08004f58       0x30 ..\obj\yume_systick_delay.o
                0x08004f58                SysTick_Init
 .text.SysTick_Handler
                0x08004f88        0xc ..\obj\yume_systick_delay.o
                0x08004f88                SysTick_Handler
 .text.TimeTick_Decrement
                0x08004f94       0x30 ..\obj\yume_systick_delay.o
                0x08004f94                TimeTick_Decrement
 .text.delay_us
                0x08004fc4       0x30 ..\obj\yume_systick_delay.o
                0x08004fc4                delay_us
 .text.delay_1ms
                0x08004ff4       0x28 ..\obj\yume_systick_delay.o
                0x08004ff4                delay_1ms
 .text.delay_ms
                0x0800501c       0x30 ..\obj\yume_systick_delay.o
                0x0800501c                delay_ms
 .text.YUME_Sound_Activation_Init
                0x0800504c       0x6c ..\obj\yume_sound_activation.o
                0x0800504c                YUME_Sound_Activation_Init
 .text.GPIO_Init
                0x080050b8      0x154 ..\obj\stm32f4xx_gpio.o
                0x080050b8                GPIO_Init
 .text.GPIO_ReadInputDataBit
                0x0800520c       0x3c ..\obj\stm32f4xx_gpio.o
                0x0800520c                GPIO_ReadInputDataBit
 .text.GPIO_SetBits
                0x08005248       0x1c ..\obj\stm32f4xx_gpio.o
                0x08005248                GPIO_SetBits
 .text.GPIO_ResetBits
                0x08005264       0x1c ..\obj\stm32f4xx_gpio.o
                0x08005264                GPIO_ResetBits
 .text.GPIO_PinAFConfig
                0x08005280       0xac ..\obj\stm32f4xx_gpio.o
                0x08005280                GPIO_PinAFConfig
 .text.SystemInit
                0x0800532c       0xb0 ..\obj\system_stm32f4xx.o
                0x0800532c                SystemInit
 .text.SetSysClock
                0x080053dc      0x188 ..\obj\system_stm32f4xx.o
 .text._sbrk    0x08005564       0x5c ..\obj\syscalls.o
                0x08005564                _sbrk
 .text.abort    0x080055c0        0x8 ..\obj\syscalls.o
                0x080055c0                abort
 .text.IR_Proximity_Init
                0x080055c8      0x138 ..\obj\yume_infrared_proximity.o
                0x080055c8                IR_Proximity_Init
 .text.Get_IR   0x08005700       0xd8 ..\obj\yume_infrared_proximity.o
                0x08005700                Get_IR
 .text.Display_IR_Stat
                0x080057d8      0x1d4 ..\obj\yume_infrared_proximity.o
                0x080057d8                Display_IR_Stat
 .text.YUME_PID_Init
                0x080059ac      0x418 ..\obj\yume_pid_controller.o
                0x080059ac                YUME_PID_Init
 .text.PID_Calc_RightRule
                0x08005dc4      0x328 ..\obj\yume_pid_controller.o
                0x08005dc4                PID_Calc_RightRule
 .text.PID_Calc_LeftRule
                0x080060ec      0x328 ..\obj\yume_pid_controller.o
                0x080060ec                PID_Calc_LeftRule
 .text.Button_Init
                0x08006414       0x10 ..\obj\yume_user_interface.o
                0x08006414                Button_Init
 .text.StartButton_Init
                0x08006424       0x6c ..\obj\yume_user_interface.o
                0x08006424                StartButton_Init
 .text.UserButton_Init
                0x08006490       0xd4 ..\obj\yume_user_interface.o
                0x08006490                UserButton_Init
 .text.Buzzer_Init
                0x08006564       0x6c ..\obj\yume_user_interface.o
                0x08006564                Buzzer_Init
 .text.YUME_Buzz
                0x080065d0       0xcc ..\obj\yume_user_interface.o
                0x080065d0                YUME_Buzz
 .text.FIRE_LED_Init
                0x0800669c       0x6c ..\obj\yume_user_interface.o
                0x0800669c                FIRE_LED_Init
 .text.YUME_LED_Interrupt_Init
                0x08006708       0x90 ..\obj\yume_user_interface.o
                0x08006708                YUME_LED_Interrupt_Init
 .text.TIM5_IRQHandler
                0x08006798      0x19c ..\obj\yume_user_interface.o
                0x08006798                TIM5_IRQHandler
 .text.YUME_Servo_Initialization
                0x08006934       0x14 ..\obj\yume_hexapod_cmd.o
                0x08006934                YUME_Servo_Initialization
 .text.Servo_TIM_Init
                0x08006948       0x54 ..\obj\yume_hexapod_cmd.o
                0x08006948                Servo_TIM_Init
 .text.Servo_Interrupt_Init
                0x0800699c      0x18c ..\obj\yume_hexapod_cmd.o
                0x0800699c                Servo_Interrupt_Init
 .text.Servo_GPIO_Init
                0x08006b28      0x138 ..\obj\yume_hexapod_cmd.o
                0x08006b28                Servo_GPIO_Init
 .text.TIM3_IRQHandler
                0x08006c60      0x4b8 ..\obj\yume_hexapod_cmd.o
                0x08006c60                TIM3_IRQHandler
 .text.generate_movement_data
                0x08007118      0x488 ..\obj\yume_hexapod_cmd.o
                0x08007118                generate_movement_data
 .text.inv_kine
                0x080075a0      0x4a0 ..\obj\yume_hexapod_cmd.o
                0x080075a0                inv_kine
 .text.servo_lin_func
                0x08007a40       0x7c ..\obj\yume_hexapod_cmd.o
                0x08007a40                servo_lin_func
 .text.mov_static
                0x08007abc      0x110 ..\obj\yume_hexapod_cmd.o
                0x08007abc                mov_static
 .text.mov_fwd_5cm
                0x08007bcc      0xbc0 ..\obj\yume_hexapod_cmd.o
                0x08007bcc                mov_fwd_5cm
 .text.mov_fwd_3cm
                0x0800878c      0x898 ..\obj\yume_hexapod_cmd.o
                0x0800878c                mov_fwd_3cm
 .text.mov_bwd  0x08009024      0x8dc ..\obj\yume_hexapod_cmd.o
                0x08009024                mov_bwd
 .text.mov_rot_right
                0x08009900      0xbcc ..\obj\yume_hexapod_cmd.o
                0x08009900                mov_rot_right
 .text.mov_rot_left
                0x0800a4cc      0xbcc ..\obj\yume_hexapod_cmd.o
                0x0800a4cc                mov_rot_left
 .text.mov_celebrate
                0x0800b098      0x544 ..\obj\yume_hexapod_cmd.o
                0x0800b098                mov_celebrate
 .text.mov_deflect_right
                0x0800b5dc      0x454 ..\obj\yume_hexapod_cmd.o
                0x0800b5dc                mov_deflect_right
 .text.mov_deflect_left
                0x0800ba30      0x454 ..\obj\yume_hexapod_cmd.o
                0x0800ba30                mov_deflect_left
 .text.YUME_Calibration
                0x0800be84     0x602c ..\obj\yume_hexapod_cmd.o
                0x0800be84                YUME_Calibration
 .text.CMD_ACTUATE
                0x08011eb0       0x58 ..\obj\yume_hexapod_cmd.o
                0x08011eb0                CMD_ACTUATE
 .text.FlameSensor_Init
                0x08011f08       0x48 ..\obj\yume_flame_sensor.o
                0x08011f08                FlameSensor_Init
 .text.ADC1_config
                0x08011f50       0xb0 ..\obj\yume_flame_sensor.o
                0x08011f50                ADC1_config
 .text.GetFlame
                0x08012000       0x2c ..\obj\yume_flame_sensor.o
                0x08012000                GetFlame
 .text.Fwd_FlameSide
                0x0801202c      0x8c4 ..\obj\yume_flame_sensor.o
                0x0801202c                Fwd_FlameSide
 .text.NVIC_Init
                0x080128f0       0xe4 ..\obj\misc.o
                0x080128f0                NVIC_Init
 .text.USART3_Init
                0x080129d4      0x178 ..\obj\yume_ping_receiver.o
                0x080129d4                USART3_Init
 .text.USART3_IRQHandler
                0x08012b4c      0x23c ..\obj\yume_ping_receiver.o
                0x08012b4c                USART3_IRQHandler
 .text.Display_Ping_Status
                0x08012d88      0x1d0 ..\obj\yume_ping_receiver.o
                0x08012d88                Display_Ping_Status
 .text.Send_Ping_Status
                0x08012f58       0x94 ..\obj\yume_ping_receiver.o
                0x08012f58                Send_Ping_Status
 .text.YUME_Dimension_Check
                0x08012fec       0x48 ..\obj\yume2016_algorithm.o
                0x08012fec                YUME_Dimension_Check
 .text.YUME_Home_Detection
                0x08013034      0x1e0 ..\obj\yume2016_algorithm.o
                0x08013034                YUME_Home_Detection
 .text.Escape_Home
                0x08013214      0x1f4 ..\obj\yume2016_algorithm.o
                0x08013214                Escape_Home
 .text.Evade_Wall
                0x08013408      0x270 ..\obj\yume2016_algorithm.o
                0x08013408                Evade_Wall
 .text.Evade_Wall_Room
                0x08013678      0x218 ..\obj\yume2016_algorithm.o
                0x08013678                Evade_Wall_Room
 .text.Cat_Avoider
                0x08013890      0x3b8 ..\obj\yume2016_algorithm.o
                0x08013890                Cat_Avoider
 .text.follow_right_counter
                0x08013c48       0x5c ..\obj\yume2016_algorithm.o
                0x08013c48                follow_right_counter
 .text.PID_follow_right_counter
                0x08013ca4      0x4f0 ..\obj\yume2016_algorithm.o
                0x08013ca4                PID_follow_right_counter
 .text.follow_left_counter
                0x08014194       0x70 ..\obj\yume2016_algorithm.o
                0x08014194                follow_left_counter
 .text.PID_follow_left_counter
                0x08014204      0x4e0 ..\obj\yume2016_algorithm.o
                0x08014204                PID_follow_left_counter
 .text.curve_right_counter
                0x080146e4     0x112c ..\obj\yume2016_algorithm.o
                0x080146e4                curve_right_counter
 .text.curve_left_counter
                0x08015810     0x1158 ..\obj\yume2016_algorithm.o
                0x08015810                curve_left_counter
 .text.FlameSense_PID_Init
                0x08016968      0x10c ..\obj\yume2016_algorithm.o
                0x08016968                FlameSense_PID_Init
 .text.FlameSense_PID_Calc
                0x08016a74      0x328 ..\obj\yume2016_algorithm.o
                0x08016a74                FlameSense_PID_Calc
 .text.Rot_Right_PID
                0x08016d9c      0x7b8 ..\obj\yume2016_algorithm.o
                0x08016d9c                Rot_Right_PID
 .text.Rot_Left_PID
                0x08017554      0x7b8 ..\obj\yume2016_algorithm.o
                0x08017554                Rot_Left_PID
 .text.YUME_FlameScanning
                0x08017d0c      0x900 ..\obj\yume2016_algorithm.o
                0x08017d0c                YUME_FlameScanning
 .text.YUME_FlameExtinguish
                0x0801860c      0x99c ..\obj\yume2016_algorithm.o
                0x0801860c                YUME_FlameExtinguish
 .text.FlameTracking_New
                0x08018fa8      0x11c ..\obj\yume2016_algorithm.o
                0x08018fa8                FlameTracking_New
 .text.PID_FlameTracking_New
                0x080190c4      0x2ec ..\obj\yume2016_algorithm.o
                0x080190c4                PID_FlameTracking_New
 .text.FlameApproach
                0x080193b0       0x24 ..\obj\yume2016_algorithm.o
                0x080193b0                FlameApproach
 .text.PID_FlameApproach
                0x080193d4      0x334 ..\obj\yume2016_algorithm.o
                0x080193d4                PID_FlameApproach
 .text.CurveRight_FlameApproach
                0x08019708      0xcbc ..\obj\yume2016_algorithm.o
                0x08019708                CurveRight_FlameApproach
 .text.CurveLeft_FlameApproach
                0x0801a3c4      0xc74 ..\obj\yume2016_algorithm.o
                0x0801a3c4                CurveLeft_FlameApproach
 .text.FollowTracer_Right
                0x0801b038      0x13c ..\obj\yume2016_algorithm.o
                0x0801b038                FollowTracer_Right
 .text.PID_FollowTracer_Right
                0x0801b174      0x580 ..\obj\yume2016_algorithm.o
                0x0801b174                PID_FollowTracer_Right
 .text.FollowTracer_Left
                0x0801b6f4      0x150 ..\obj\yume2016_algorithm.o
                0x0801b6f4                FollowTracer_Left
 .text.PID_FollowTracer_Left
                0x0801b844      0x538 ..\obj\yume2016_algorithm.o
                0x0801b844                PID_FollowTracer_Left
 .text.FollowCarpet_Right
                0x0801bd7c      0x150 ..\obj\yume2016_algorithm.o
                0x0801bd7c                FollowCarpet_Right
 .text.PID_FollowCarpet_Right
                0x0801becc      0x4ec ..\obj\yume2016_algorithm.o
                0x0801becc                PID_FollowCarpet_Right
 .text.FollowCarpet_Left
                0x0801c3b8      0x178 ..\obj\yume2016_algorithm.o
                0x0801c3b8                FollowCarpet_Left
 .text.PID_FollowCarpet_Left
                0x0801c530      0x4a4 ..\obj\yume2016_algorithm.o
                0x0801c530                PID_FollowCarpet_Left
 .text.FollowHome_Right
                0x0801c9d4      0x118 ..\obj\yume2016_algorithm.o
                0x0801c9d4                FollowHome_Right
 .text.PID_FollowHome_Right
                0x0801caec      0x5ac ..\obj\yume2016_algorithm.o
                0x0801caec                PID_FollowHome_Right
 .text.FollowHome_Left
                0x0801d098      0x118 ..\obj\yume2016_algorithm.o
                0x0801d098                FollowHome_Left
 .text.PID_FollowHome_Left
                0x0801d1b0      0x564 ..\obj\yume2016_algorithm.o
                0x0801d1b0                PID_FollowHome_Left
 .text.RoomTypeDetector
                0x0801d714      0x334 ..\obj\yume2016_algorithm.o
                0x0801d714                RoomTypeDetector
 .text.RoomDetector
                0x0801da48      0xa7c ..\obj\yume2016_algorithm.o
                0x0801da48                RoomDetector
 .text.UVLock_Refresh
                0x0801e4c4       0x28 ..\obj\yume2016_algorithm.o
                0x0801e4c4                UVLock_Refresh
 .text.YUME_Navi
                0x0801e4ec      0x6a4 ..\obj\yume2016_algorithm.o
                0x0801e4ec                YUME_Navi
 .text.Nav_HallwaySC_To_3
                0x0801eb90      0x150 ..\obj\yume2016_algorithm.o
                0x0801eb90                Nav_HallwaySC_To_3
 .text.Nav_HallwaySC_To_2
                0x0801ece0      0x25c ..\obj\yume2016_algorithm.o
                0x0801ece0                Nav_HallwaySC_To_2
 .text.Nav_HallwaySC_To_4B
                0x0801ef3c      0x110 ..\obj\yume2016_algorithm.o
                0x0801ef3c                Nav_HallwaySC_To_4B
 .text.Nav_HallwaySC_To_4A
                0x0801f04c      0x1cc ..\obj\yume2016_algorithm.o
                0x0801f04c                Nav_HallwaySC_To_4A
 .text.Nav_HallwaySC_To_1B
                0x0801f218      0x2a8 ..\obj\yume2016_algorithm.o
                0x0801f218                Nav_HallwaySC_To_1B
 .text.Nav_HallwaySC_To_1A
                0x0801f4c0      0x140 ..\obj\yume2016_algorithm.o
                0x0801f4c0                Nav_HallwaySC_To_1A
 .text.Nav_3_To_HallwaySC
                0x0801f600      0x128 ..\obj\yume2016_algorithm.o
                0x0801f600                Nav_3_To_HallwaySC
 .text.Nav_3_To_2
                0x0801f728      0x128 ..\obj\yume2016_algorithm.o
                0x0801f728                Nav_3_To_2
 .text.Nav_3_To_1A
                0x0801f850      0x188 ..\obj\yume2016_algorithm.o
                0x0801f850                Nav_3_To_1A
 .text.Nav_3_To_1BC
                0x0801f9d8      0x1c0 ..\obj\yume2016_algorithm.o
                0x0801f9d8                Nav_3_To_1BC
 .text.Nav_3_To_4A
                0x0801fb98      0x3b8 ..\obj\yume2016_algorithm.o
                0x0801fb98                Nav_3_To_4A
 .text.Nav_3_To_4B
                0x0801ff50      0x21c ..\obj\yume2016_algorithm.o
                0x0801ff50                Nav_3_To_4B
 .text.Nav_2_To_HallwaySC
                0x0802016c      0x28c ..\obj\yume2016_algorithm.o
                0x0802016c                Nav_2_To_HallwaySC
 .text.Nav_2A_To_1BC
                0x080203f8      0x15c ..\obj\yume2016_algorithm.o
                0x080203f8                Nav_2A_To_1BC
 .text.Nav_2B_To_1BC
                0x08020554      0x100 ..\obj\yume2016_algorithm.o
                0x08020554                Nav_2B_To_1BC
 .text.Nav_2_To_3
                0x08020654      0x344 ..\obj\yume2016_algorithm.o
                0x08020654                Nav_2_To_3
 .text.Nav_2_To_4A
                0x08020998      0x714 ..\obj\yume2016_algorithm.o
                0x08020998                Nav_2_To_4A
 .text.Nav_2_To_4B
                0x080210ac      0x334 ..\obj\yume2016_algorithm.o
                0x080210ac                Nav_2_To_4B
 .text.Nav_2_To_1A
                0x080213e0      0x114 ..\obj\yume2016_algorithm.o
                0x080213e0                Nav_2_To_1A
 .text.Nav_1A_To_HallwaySC
                0x080214f4      0x7a8 ..\obj\yume2016_algorithm.o
                0x080214f4                Nav_1A_To_HallwaySC
 .text.Nav_1A_To_2
                0x08021c9c      0x658 ..\obj\yume2016_algorithm.o
                0x08021c9c                Nav_1A_To_2
 .text.Nav_1A_To_3
                0x080222f4      0x560 ..\obj\yume2016_algorithm.o
                0x080222f4                Nav_1A_To_3
 .text.Nav_1A_To_4B
                0x08022854      0x394 ..\obj\yume2016_algorithm.o
                0x08022854                Nav_1A_To_4B
 .text.Nav_1A_To_4A
                0x08022be8      0x404 ..\obj\yume2016_algorithm.o
                0x08022be8                Nav_1A_To_4A
 .text.Nav_1C_To_HallwaySC
                0x08022fec      0x1dc ..\obj\yume2016_algorithm.o
                0x08022fec                Nav_1C_To_HallwaySC
 .text.Nav_1C_To_2
                0x080231c8      0x150 ..\obj\yume2016_algorithm.o
                0x080231c8                Nav_1C_To_2
 .text.Nav_1B_To_2
                0x08023318      0x260 ..\obj\yume2016_algorithm.o
                0x08023318                Nav_1B_To_2
 .text.Nav_1C_To_3
                0x08023578      0x284 ..\obj\yume2016_algorithm.o
                0x08023578                Nav_1C_To_3
 .text.Nav_1C_To_4A
                0x080237fc      0x370 ..\obj\yume2016_algorithm.o
                0x080237fc                Nav_1C_To_4A
 .text.Nav_1C_To_4B
                0x08023b6c      0x28c ..\obj\yume2016_algorithm.o
                0x08023b6c                Nav_1C_To_4B
 .text.Nav_4A_To_HallwaySC
                0x08023df8      0x304 ..\obj\yume2016_algorithm.o
                0x08023df8                Nav_4A_To_HallwaySC
 .text.Nav_4A_To_3
                0x080240fc      0x850 ..\obj\yume2016_algorithm.o
                0x080240fc                Nav_4A_To_3
 .text.Nav_4A_To_1A
                0x0802494c      0x2f0 ..\obj\yume2016_algorithm.o
                0x0802494c                Nav_4A_To_1A
 .text.Nav_4A_To_2
                0x08024c3c      0x58c ..\obj\yume2016_algorithm.o
                0x08024c3c                Nav_4A_To_2
 .text.Nav_4B_To_HallwaySC
                0x080251c8      0x130 ..\obj\yume2016_algorithm.o
                0x080251c8                Nav_4B_To_HallwaySC
 .text.Nav_4B_To_1A
                0x080252f8      0x1b4 ..\obj\yume2016_algorithm.o
                0x080252f8                Nav_4B_To_1A
 .text.Nav_4B_To_1BC
                0x080254ac      0x274 ..\obj\yume2016_algorithm.o
                0x080254ac                Nav_4B_To_1BC
 .text.Nav_4B_To_2
                0x08025720      0x210 ..\obj\yume2016_algorithm.o
                0x08025720                Nav_4B_To_2
 .text.Nav_4B_To_3
                0x08025930      0x2d8 ..\obj\yume2016_algorithm.o
                0x08025930                Nav_4B_To_3
 .text.TCSlave_Check
                0x08025c08      0x150 ..\obj\yume2016_algorithm.o
                0x08025c08                TCSlave_Check
 .text.HomeCircle_Detector
                0x08025d58       0x20 ..\obj\yume2016_algorithm.o
                0x08025d58                HomeCircle_Detector
 .text.Exit_No_Fire
                0x08025d78      0x71c ..\obj\yume2016_algorithm.o
                0x08025d78                Exit_No_Fire
 .text.Stabilize_After_Exit
                0x08026494       0xa4 ..\obj\yume2016_algorithm.o
                0x08026494                Stabilize_After_Exit
 .text.YUME_Room
                0x08026538      0x5d0 ..\obj\yume2016_algorithm.o
                0x08026538                YUME_Room
 .text.YUME_Strategy
                0x08026b08      0x890 ..\obj\yume2016_algorithm.o
                0x08026b08                YUME_Strategy
 .text.YUME_ReturnTrip
                0x08027398     0x10e0 ..\obj\yume2016_algorithm.o
                0x08027398                YUME_ReturnTrip
 .text.YUME_FlameCheck
                0x08028478      0x97c ..\obj\yume2016_algorithm.o
                0x08028478                YUME_FlameCheck
 .text.YUME_CandleScan
                0x08028df4      0xe30 ..\obj\yume2016_algorithm.o
                0x08028df4                YUME_CandleScan
 .text.FireFight_FrontDetector
                0x08029c24       0x34 ..\obj\yume2016_algorithm.o
                0x08029c24                FireFight_FrontDetector
 .text.FireFight_FlameDetector
                0x08029c58       0x58 ..\obj\yume2016_algorithm.o
                0x08029c58                FireFight_FlameDetector
 .text.FireFight_CandleStickDetector
                0x08029cb0       0xe8 ..\obj\yume2016_algorithm.o
                0x08029cb0                FireFight_CandleStickDetector
 .text.FireFight_CandleFireDetector
                0x08029d98       0x34 ..\obj\yume2016_algorithm.o
                0x08029d98                FireFight_CandleFireDetector
 .text.YUME_FlameFollowDemo
                0x08029dcc     0x11d0 ..\obj\yume2016_algorithm.o
                0x08029dcc                YUME_FlameFollowDemo
 .text.Nav_TurnAround
                0x0802af9c      0x1fc ..\obj\yume2016_algorithm.o
                0x0802af9c                Nav_TurnAround
 .text.YUME_BLDC_Extinguish
                0x0802b198      0x7a4 ..\obj\yume2016_algorithm.o
                0x0802b198                YUME_BLDC_Extinguish
 .text.FlameSenseDigi_PID_Init
                0x0802b93c      0x10c ..\obj\yume2016_algorithm.o
                0x0802b93c                FlameSenseDigi_PID_Init
 .text.FlameSense_PID_Calc_Ver3
                0x0802ba48      0x328 ..\obj\yume2016_algorithm.o
                0x0802ba48                FlameSense_PID_Calc_Ver3
 .text.FlameTracking_Ver3
                0x0802bd70      0x120 ..\obj\yume2016_algorithm.o
                0x0802bd70                FlameTracking_Ver3
 .text.PID_FlameTracking_Ver3
                0x0802be90      0x28c ..\obj\yume2016_algorithm.o
                0x0802be90                PID_FlameTracking_Ver3
 .text.FlameApproach_Ver2
                0x0802c11c       0x18 ..\obj\yume2016_algorithm.o
                0x0802c11c                FlameApproach_Ver2
 .text.PID_FlameApproach_Ver2
                0x0802c134      0x310 ..\obj\yume2016_algorithm.o
                0x0802c134                PID_FlameApproach_Ver2
 .text.YUME_FireFight_Ver5
                0x0802c444      0x784 ..\obj\yume2016_algorithm.o
                0x0802c444                YUME_FireFight_Ver5
 .text.Get_UV   0x0802cbc8       0x48 ..\obj\yume_UV-TRON.o
                0x0802cbc8                Get_UV
 .text.TIM_TimeBaseInit
                0x0802cc10       0xf4 ..\obj\stm32f4xx_tim.o
                0x0802cc10                TIM_TimeBaseInit
 .text.TIM_Cmd  0x0802cd04       0x40 ..\obj\stm32f4xx_tim.o
                0x0802cd04                TIM_Cmd
 .text.TIM_OC1Init
                0x0802cd44       0xfc ..\obj\stm32f4xx_tim.o
                0x0802cd44                TIM_OC1Init
 .text.TIM_OC2Init
                0x0802ce40      0x128 ..\obj\stm32f4xx_tim.o
                0x0802ce40                TIM_OC2Init
 .text.TIM_OC3Init
                0x0802cf68      0x120 ..\obj\stm32f4xx_tim.o
                0x0802cf68                TIM_OC3Init
 .text.TIM_OC1PreloadConfig
                0x0802d088       0x38 ..\obj\stm32f4xx_tim.o
                0x0802d088                TIM_OC1PreloadConfig
 .text.TIM_OC2PreloadConfig
                0x0802d0c0       0x40 ..\obj\stm32f4xx_tim.o
                0x0802d0c0                TIM_OC2PreloadConfig
 .text.TIM_OC3PreloadConfig
                0x0802d100       0x38 ..\obj\stm32f4xx_tim.o
                0x0802d100                TIM_OC3PreloadConfig
 .text.TIM_ITConfig
                0x0802d138       0x48 ..\obj\stm32f4xx_tim.o
                0x0802d138                TIM_ITConfig
 .text.TIM_GetITStatus
                0x0802d180       0x60 ..\obj\stm32f4xx_tim.o
                0x0802d180                TIM_GetITStatus
 .text.TIM_ClearITPendingBit
                0x0802d1e0       0x24 ..\obj\stm32f4xx_tim.o
                0x0802d1e0                TIM_ClearITPendingBit
 *fill*         0x0802d204        0x4 00
 .text.atan     0x0802d208      0x388 C:\Softwares\CooCox\GNU Tools ARM Embedded\4.6 2012q2\arm-none-eabi\lib\armv7e-m\fpu\libm.a(lib_a-s_atan.o)
                0x0802d208                atan
 .text.cos      0x0802d590       0xb0 C:\Softwares\CooCox\GNU Tools ARM Embedded\4.6 2012q2\arm-none-eabi\lib\armv7e-m\fpu\libm.a(lib_a-s_cos.o)
                0x0802d590                cos
 .text.fabs     0x0802d640       0x14 C:\Softwares\CooCox\GNU Tools ARM Embedded\4.6 2012q2\arm-none-eabi\lib\armv7e-m\fpu\libm.a(lib_a-s_fabs.o)
                0x0802d640                fabs
 .text.__fpclassifyd
                0x0802d654       0x70 C:\Softwares\CooCox\GNU Tools ARM Embedded\4.6 2012q2\arm-none-eabi\lib\armv7e-m\fpu\libm.a(lib_a-s_fpclassify.o)
                0x0802d654                __fpclassifyd
 *fill*         0x0802d6c4        0x4 00
 .text.sin      0x0802d6c8       0xb8 C:\Softwares\CooCox\GNU Tools ARM Embedded\4.6 2012q2\arm-none-eabi\lib\armv7e-m\fpu\libm.a(lib_a-s_sin.o)
                0x0802d6c8                sin
 .text.acos     0x0802d780       0xc0 C:\Softwares\CooCox\GNU Tools ARM Embedded\4.6 2012q2\arm-none-eabi\lib\armv7e-m\fpu\libm.a(lib_a-w_acos.o)
                0x0802d780                acos
 .text.__ieee754_acos
                0x0802d840      0x508 C:\Softwares\CooCox\GNU Tools ARM Embedded\4.6 2012q2\arm-none-eabi\lib\armv7e-m\fpu\libm.a(lib_a-e_acos.o)
                0x0802d840                __ieee754_acos
 .text.__ieee754_rem_pio2
                0x0802dd48      0x478 C:\Softwares\CooCox\GNU Tools ARM Embedded\4.6 2012q2\arm-none-eabi\lib\armv7e-m\fpu\libm.a(lib_a-e_rem_pio2.o)
                0x0802dd48                __ieee754_rem_pio2
 .text.__ieee754_sqrt
                0x0802e1c0      0x1c4 C:\Softwares\CooCox\GNU Tools ARM Embedded\4.6 2012q2\arm-none-eabi\lib\armv7e-m\fpu\libm.a(lib_a-e_sqrt.o)
                0x0802e1c0                __ieee754_sqrt
 *fill*         0x0802e384        0x4 00
 .text.__kernel_cos
                0x0802e388      0x270 C:\Softwares\CooCox\GNU Tools ARM Embedded\4.6 2012q2\arm-none-eabi\lib\armv7e-m\fpu\libm.a(lib_a-k_cos.o)
                0x0802e388                __kernel_cos
 .text.__kernel_rem_pio2
                0x0802e5f8      0x808 C:\Softwares\CooCox\GNU Tools ARM Embedded\4.6 2012q2\arm-none-eabi\lib\armv7e-m\fpu\libm.a(lib_a-k_rem_pio2.o)
                0x0802e5f8                __kernel_rem_pio2
 .text.__kernel_sin
                0x0802ee00      0x178 C:\Softwares\CooCox\GNU Tools ARM Embedded\4.6 2012q2\arm-none-eabi\lib\armv7e-m\fpu\libm.a(lib_a-k_sin.o)
                0x0802ee00                __kernel_sin
 .text.floor    0x0802ef78      0x150 C:\Softwares\CooCox\GNU Tools ARM Embedded\4.6 2012q2\arm-none-eabi\lib\armv7e-m\fpu\libm.a(lib_a-s_floor.o)
                0x0802ef78                floor
 .text.matherr  0x0802f0c8        0x4 C:\Softwares\CooCox\GNU Tools ARM Embedded\4.6 2012q2\arm-none-eabi\lib\armv7e-m\fpu\libm.a(lib_a-s_matherr.o)
                0x0802f0c8                matherr
 *fill*         0x0802f0cc        0x4 00
 .text.nan      0x0802f0d0       0x10 C:\Softwares\CooCox\GNU Tools ARM Embedded\4.6 2012q2\arm-none-eabi\lib\armv7e-m\fpu\libm.a(lib_a-s_nan.o)
                0x0802f0d0                nan
 .text.scalbn   0x0802f0e0      0x120 C:\Softwares\CooCox\GNU Tools ARM Embedded\4.6 2012q2\arm-none-eabi\lib\armv7e-m\fpu\libm.a(lib_a-s_scalbn.o)
                0x0802f0e0                scalbn
 .text.copysign
                0x0802f200       0x24 C:\Softwares\CooCox\GNU Tools ARM Embedded\4.6 2012q2\arm-none-eabi\lib\armv7e-m\fpu\libm.a(lib_a-s_copysign.o)
                0x0802f200                copysign
 .text          0x0802f224      0x370 c:/softwares/coocox/gnu tools arm embedded/4.6 2012q2/bin/../lib/gcc/arm-none-eabi/4.6.2/armv7e-m/fpu\libgcc.a(_arm_addsubdf3.o)
                0x0802f224                __aeabi_drsub
                0x0802f22c                __aeabi_dsub
                0x0802f22c                __subdf3
                0x0802f230                __aeabi_dadd
                0x0802f230                __adddf3
                0x0802f4a8                __floatunsidf
                0x0802f4a8                __aeabi_ui2d
                0x0802f4c8                __floatsidf
                0x0802f4c8                __aeabi_i2d
                0x0802f4ec                __aeabi_f2d
                0x0802f4ec                __extendsfdf2
                0x0802f528                __floatundidf
                0x0802f528                __aeabi_ul2d
                0x0802f538                __floatdidf
                0x0802f538                __aeabi_l2d
 .text          0x0802f594      0x424 c:/softwares/coocox/gnu tools arm embedded/4.6 2012q2/bin/../lib/gcc/arm-none-eabi/4.6.2/armv7e-m/fpu\libgcc.a(_arm_muldivdf3.o)
                0x0802f594                __aeabi_dmul
                0x0802f594                __muldf3
                0x0802f7e8                __divdf3
                0x0802f7e8                __aeabi_ddiv
 .text          0x0802f9b8      0x110 c:/softwares/coocox/gnu tools arm embedded/4.6 2012q2/bin/../lib/gcc/arm-none-eabi/4.6.2/armv7e-m/fpu\libgcc.a(_arm_cmpdf2.o)
                0x0802f9b8                __gtdf2
                0x0802f9b8                __gedf2
                0x0802f9c0                __ltdf2
                0x0802f9c0                __ledf2
                0x0802f9c8                __nedf2
                0x0802f9c8                __eqdf2
                0x0802f9c8                __cmpdf2
                0x0802fa44                __aeabi_cdrcmple
                0x0802fa54                __aeabi_cdcmpeq
                0x0802fa54                __aeabi_cdcmple
                0x0802fa64                __aeabi_dcmpeq
                0x0802fa78                __aeabi_dcmplt
                0x0802fa8c                __aeabi_dcmple
                0x0802faa0                __aeabi_dcmpge
                0x0802fab4                __aeabi_dcmpgt
 .text          0x0802fac8       0x50 c:/softwares/coocox/gnu tools arm embedded/4.6 2012q2/bin/../lib/gcc/arm-none-eabi/4.6.2/armv7e-m/fpu\libgcc.a(_arm_fixdfsi.o)
                0x0802fac8                __aeabi_d2iz
                0x0802fac8                __fixdfsi
 .text          0x0802fb18       0xa0 c:/softwares/coocox/gnu tools arm embedded/4.6 2012q2/bin/../lib/gcc/arm-none-eabi/4.6.2/armv7e-m/fpu\libgcc.a(_arm_truncdfsf2.o)
                0x0802fb18                __truncdfsf2
                0x0802fb18                __aeabi_d2f
 .text.__errno  0x0802fbb8        0xc C:\Softwares\CooCox\GNU Tools ARM Embedded\4.6 2012q2\arm-none-eabi\lib\armv7e-m\fpu\libc.a(lib_a-errno.o)
                0x0802fbb8                __errno
 .text.memcpy   0x0802fbc4       0x84 C:\Softwares\CooCox\GNU Tools ARM Embedded\4.6 2012q2\arm-none-eabi\lib\armv7e-m\fpu\libc.a(lib_a-memcpy.o)
                0x0802fbc4                memcpy
 .text.sprintf  0x0802fc48       0x50 C:\Softwares\CooCox\GNU Tools ARM Embedded\4.6 2012q2\arm-none-eabi\lib\armv7e-m\fpu\libc.a(lib_a-sprintf.o)
                0x0802fc48                sprintf
 .text.strlen   0x0802fc98       0x60 C:\Softwares\CooCox\GNU Tools ARM Embedded\4.6 2012q2\arm-none-eabi\lib\armv7e-m\fpu\libc.a(lib_a-strlen.o)
                0x0802fc98                strlen
 .text._svfprintf_r
                0x0802fcf8     0x1428 C:\Softwares\CooCox\GNU Tools ARM Embedded\4.6 2012q2\arm-none-eabi\lib\armv7e-m\fpu\libc.a(lib_a-svfprintf.o)
                0x0802fcf8                _svfprintf_r
 .text.quorem   0x08031120      0x14c C:\Softwares\CooCox\GNU Tools ARM Embedded\4.6 2012q2\arm-none-eabi\lib\armv7e-m\fpu\libc.a(lib_a-dtoa.o)
 *fill*         0x0803126c        0x4 00
 .text._dtoa_r  0x08031270      0xe68 C:\Softwares\CooCox\GNU Tools ARM Embedded\4.6 2012q2\arm-none-eabi\lib\armv7e-m\fpu\libc.a(lib_a-dtoa.o)
                0x08031270                _dtoa_r
 .text._localeconv_r
                0x080320d8        0xc C:\Softwares\CooCox\GNU Tools ARM Embedded\4.6 2012q2\arm-none-eabi\lib\armv7e-m\fpu\libc.a(lib_a-locale.o)
                0x080320d8                _localeconv_r
 .text._malloc_r
                0x080320e4      0x540 C:\Softwares\CooCox\GNU Tools ARM Embedded\4.6 2012q2\arm-none-eabi\lib\armv7e-m\fpu\libc.a(lib_a-mallocr.o)
                0x080320e4                _malloc_r
 .text.memchr   0x08032624       0x84 C:\Softwares\CooCox\GNU Tools ARM Embedded\4.6 2012q2\arm-none-eabi\lib\armv7e-m\fpu\libc.a(lib_a-memchr.o)
                0x08032624                memchr
 .text.__malloc_lock
                0x080326a8        0x4 C:\Softwares\CooCox\GNU Tools ARM Embedded\4.6 2012q2\arm-none-eabi\lib\armv7e-m\fpu\libc.a(lib_a-mlock.o)
                0x080326a8                __malloc_lock
 .text.__malloc_unlock
                0x080326ac        0x4 C:\Softwares\CooCox\GNU Tools ARM Embedded\4.6 2012q2\arm-none-eabi\lib\armv7e-m\fpu\libc.a(lib_a-mlock.o)
                0x080326ac                __malloc_unlock
 .text._Balloc  0x080326b0       0x4c C:\Softwares\CooCox\GNU Tools ARM Embedded\4.6 2012q2\arm-none-eabi\lib\armv7e-m\fpu\libc.a(lib_a-mprec.o)
                0x080326b0                _Balloc
 .text._Bfree   0x080326fc       0x14 C:\Softwares\CooCox\GNU Tools ARM Embedded\4.6 2012q2\arm-none-eabi\lib\armv7e-m\fpu\libc.a(lib_a-mprec.o)
                0x080326fc                _Bfree
 .text.__multadd
                0x08032710       0x84 C:\Softwares\CooCox\GNU Tools ARM Embedded\4.6 2012q2\arm-none-eabi\lib\armv7e-m\fpu\libc.a(lib_a-mprec.o)
                0x08032710                __multadd
 .text.__hi0bits
                0x08032794       0x3c C:\Softwares\CooCox\GNU Tools ARM Embedded\4.6 2012q2\arm-none-eabi\lib\armv7e-m\fpu\libc.a(lib_a-mprec.o)
                0x08032794                __hi0bits
 .text.__lo0bits
                0x080327d0       0x5c C:\Softwares\CooCox\GNU Tools ARM Embedded\4.6 2012q2\arm-none-eabi\lib\armv7e-m\fpu\libc.a(lib_a-mprec.o)
                0x080327d0                __lo0bits
 .text.__i2b    0x0803282c       0x14 C:\Softwares\CooCox\GNU Tools ARM Embedded\4.6 2012q2\arm-none-eabi\lib\armv7e-m\fpu\libc.a(lib_a-mprec.o)
                0x0803282c                __i2b
 .text.__multiply
                0x08032840      0x144 C:\Softwares\CooCox\GNU Tools ARM Embedded\4.6 2012q2\arm-none-eabi\lib\armv7e-m\fpu\libc.a(lib_a-mprec.o)
                0x08032840                __multiply
 .text.__pow5mult
                0x08032984       0x98 C:\Softwares\CooCox\GNU Tools ARM Embedded\4.6 2012q2\arm-none-eabi\lib\armv7e-m\fpu\libc.a(lib_a-mprec.o)
                0x08032984                __pow5mult
 .text.__lshift
                0x08032a1c       0xc0 C:\Softwares\CooCox\GNU Tools ARM Embedded\4.6 2012q2\arm-none-eabi\lib\armv7e-m\fpu\libc.a(lib_a-mprec.o)
                0x08032a1c                __lshift
 .text.__mcmp   0x08032adc       0x3c C:\Softwares\CooCox\GNU Tools ARM Embedded\4.6 2012q2\arm-none-eabi\lib\armv7e-m\fpu\libc.a(lib_a-mprec.o)
                0x08032adc                __mcmp
 .text.__mdiff  0x08032b18       0xd8 C:\Softwares\CooCox\GNU Tools ARM Embedded\4.6 2012q2\arm-none-eabi\lib\armv7e-m\fpu\libc.a(lib_a-mprec.o)
                0x08032b18                __mdiff
 .text.__d2b    0x08032bf0       0xc8 C:\Softwares\CooCox\GNU Tools ARM Embedded\4.6 2012q2\arm-none-eabi\lib\armv7e-m\fpu\libc.a(lib_a-mprec.o)
                0x08032bf0                __d2b
 .text._sbrk_r  0x08032cb8       0x24 C:\Softwares\CooCox\GNU Tools ARM Embedded\4.6 2012q2\arm-none-eabi\lib\armv7e-m\fpu\libc.a(lib_a-sbrkr.o)
                0x08032cb8                _sbrk_r
 .text.__ssprint_r
                0x08032cdc       0xfc C:\Softwares\CooCox\GNU Tools ARM Embedded\4.6 2012q2\arm-none-eabi\lib\armv7e-m\fpu\libc.a(lib_a-svfiprintf.o)
                0x08032cdc                __ssprint_r
 .text._calloc_r
                0x08032dd8       0x60 C:\Softwares\CooCox\GNU Tools ARM Embedded\4.6 2012q2\arm-none-eabi\lib\armv7e-m\fpu\libc.a(lib_a-callocr.o)
                0x08032dd8                _calloc_r
 .text._malloc_trim_r
                0x08032e38       0xa0 C:\Softwares\CooCox\GNU Tools ARM Embedded\4.6 2012q2\arm-none-eabi\lib\armv7e-m\fpu\libc.a(lib_a-freer.o)
                0x08032e38                _malloc_trim_r
 .text._free_r  0x08032ed8      0x190 C:\Softwares\CooCox\GNU Tools ARM Embedded\4.6 2012q2\arm-none-eabi\lib\armv7e-m\fpu\libc.a(lib_a-freer.o)
                0x08032ed8                _free_r
 .text.memmove  0x08033068       0xb0 C:\Softwares\CooCox\GNU Tools ARM Embedded\4.6 2012q2\arm-none-eabi\lib\armv7e-m\fpu\libc.a(lib_a-memmove.o)
                0x08033068                memmove
 .text.memset   0x08033118       0x90 C:\Softwares\CooCox\GNU Tools ARM Embedded\4.6 2012q2\arm-none-eabi\lib\armv7e-m\fpu\libc.a(lib_a-memset.o)
                0x08033118                memset
 .text._realloc_r
                0x080331a8      0x3e0 C:\Softwares\CooCox\GNU Tools ARM Embedded\4.6 2012q2\arm-none-eabi\lib\armv7e-m\fpu\libc.a(lib_a-reallocr.o)
                0x080331a8                _realloc_r
 .text          0x08033588       0x2c c:/softwares/coocox/gnu tools arm embedded/4.6 2012q2/bin/../lib/gcc/arm-none-eabi/4.6.2/armv7e-m/fpu\libgcc.a(_aeabi_uldivmod.o)
                0x08033588                __aeabi_uldivmod
 .text          0x080335b4       0x58 c:/softwares/coocox/gnu tools arm embedded/4.6 2012q2/bin/../lib/gcc/arm-none-eabi/4.6.2/armv7e-m/fpu\libgcc.a(bpabi.o)
                0x080335b4                __gnu_ldivmod_helper
                0x080335e0                __gnu_uldivmod_helper
 .text          0x0803360c      0xb54 c:/softwares/coocox/gnu tools arm embedded/4.6 2012q2/bin/../lib/gcc/arm-none-eabi/4.6.2/armv7e-m/fpu\libgcc.a(unwind-arm.o)
                0x080338b4                _Unwind_VRS_Get
                0x080338f4                _Unwind_VRS_Set
                0x08033c54                __aeabi_unwind_cpp_pr2
                0x08033c58                __aeabi_unwind_cpp_pr1
                0x08033c5c                __aeabi_unwind_cpp_pr0
                0x08033c60                _Unwind_VRS_Pop
                0x08034014                _Unwind_GetCFA
                0x08034018                __gnu_Unwind_RaiseException
                0x08034078                __gnu_Unwind_ForcedUnwind
                0x0803408c                __gnu_Unwind_Resume
                0x080340c8                __gnu_Unwind_Resume_or_Rethrow
                0x080340d8                _Unwind_Complete
                0x080340dc                _Unwind_DeleteException
                0x080340ec                __gnu_Unwind_Backtrace
 .text          0x08034160      0x1ac c:/softwares/coocox/gnu tools arm embedded/4.6 2012q2/bin/../lib/gcc/arm-none-eabi/4.6.2/armv7e-m/fpu\libgcc.a(libunwind.o)
                0x08034160                __restore_core_regs
                0x08034160                restore_core_regs
                0x08034178                __gnu_Unwind_Restore_VFP
                0x08034180                __gnu_Unwind_Save_VFP
                0x08034188                __gnu_Unwind_Restore_VFP_D
                0x08034190                __gnu_Unwind_Save_VFP_D
                0x08034198                __gnu_Unwind_Restore_VFP_D_16_to_31
                0x080341a0                __gnu_Unwind_Save_VFP_D_16_to_31
                0x080341a8                __gnu_Unwind_Restore_WMMXD
                0x080341ec                __gnu_Unwind_Save_WMMXD
                0x08034230                __gnu_Unwind_Restore_WMMXC
                0x08034244                __gnu_Unwind_Save_WMMXC
                0x08034258                ___Unwind_RaiseException
                0x08034258                _Unwind_RaiseException
                0x0803427c                _Unwind_Resume
                0x0803427c                ___Unwind_Resume
                0x080342a0                _Unwind_Resume_or_Rethrow
                0x080342a0                ___Unwind_Resume_or_Rethrow
                0x080342c4                _Unwind_ForcedUnwind
                0x080342c4                ___Unwind_ForcedUnwind
                0x080342e8                ___Unwind_Backtrace
                0x080342e8                _Unwind_Backtrace
 .text          0x0803430c      0x374 c:/softwares/coocox/gnu tools arm embedded/4.6 2012q2/bin/../lib/gcc/arm-none-eabi/4.6.2/armv7e-m/fpu\libgcc.a(pr-support.o)
                0x08034360                __gnu_unwind_execute
                0x08034628                __gnu_unwind_frame
                0x08034650                _Unwind_GetRegionStart
                0x0803465c                _Unwind_GetLanguageSpecificData
                0x08034670                _Unwind_GetDataRelBase
                0x08034678                _Unwind_GetTextRelBase
 .text          0x08034680        0x4 c:/softwares/coocox/gnu tools arm embedded/4.6 2012q2/bin/../lib/gcc/arm-none-eabi/4.6.2/armv7e-m/fpu\libgcc.a(_dvmd_tls.o)
                0x08034680                __aeabi_idiv0
                0x08034680                __aeabi_ldiv0
 .text          0x08034684      0x2c8 c:/softwares/coocox/gnu tools arm embedded/4.6 2012q2/bin/../lib/gcc/arm-none-eabi/4.6.2/armv7e-m/fpu\libgcc.a(_divdi3.o)
                0x08034684                __divdi3
 .text          0x0803494c      0x298 c:/softwares/coocox/gnu tools arm embedded/4.6 2012q2/bin/../lib/gcc/arm-none-eabi/4.6.2/armv7e-m/fpu\libgcc.a(_udivdi3.o)
                0x0803494c                __udivdi3
 *(.init)
 *(.fini)
 *crtbegin.o(.ctors)
 *crtbegin?.o(.ctors)
 *(EXCLUDE_FILE(*crtend.o *crtend?.o) .ctors)
 *(SORT(.ctors.*))
 *(.ctors)
 *crtbegin.o(.dtors)
 *crtbegin?.o(.dtors)
 *(EXCLUDE_FILE(*crtend.o *crtend?.o) .dtors)
 *(SORT(.dtors.*))
 *(.dtors)
 *(.rodata*)
 .rodata        0x08034be4       0x38 ..\obj\yume_bumper.o
 .rodata        0x08034c1c       0xf8 ..\obj\yume_rotary_switch.o
 .rodata        0x08034d14      0x320 ..\obj\yume_tcs3200_receiver.o
 .rodata        0x08035034       0x84 ..\obj\yume_usart_comm.o
 .rodata        0x080350b8       0x3c ..\obj\yume_extinguisher.o
 .rodata        0x080350f4      0x178 ..\obj\main.o
 .rodata        0x0803526c       0x40 ..\obj\yume_utilities.o
 .rodata        0x080352ac      0x104 ..\obj\yume_global_var.o
                0x080352ac                A_const
                0x080352f4                B_const
                0x0803533c                leg_1
                0x08035354                leg_norm
                0x0803536c                alpha
                0x08035384                Gyro_Sensitivity_1000s
                0x08035388                Gyro_Sensitivity_2000s
                0x0803538c                TCS_CALIBRATE_WHITE
                0x08035390                TCS_CALIBRATE_BLACK
                0x08035394                TCS_CALIBRATE_GRAY
                0x08035398                TCS_CALIBRATE_GETRULE
                0x0803539c                TCS_FRONT_SHOW_THRESHOLD
                0x080353a0                TCS_MIDDLE_SHOW_THRESHOLD
                0x080353a4                TRACER_CALIBRATE_GRAY
                0x080353a8                TRACER_CALIBRATE_WHITE
                0x080353ac                TRACER_CALIBRATE_GETRULE
 .rodata        0x080353b0       0x4c ..\obj\yume_infrared_proximity.o
 .rodata        0x080353fc      0x4cc ..\obj\yume_hexapod_cmd.o
                0x080353fc                STATIC_LOW_CLEARANCE
                0x08035400                STATIC_MED_CLEARANCE
                0x08035404                STATIC_HIGH_CLEARANCE
                0x08035408                SEARCH_FIRE
                0x0803540c                FORWARD
                0x08035410                BACKWARD
                0x08035414                ROTATE_RIGHT
                0x08035418                ROTATE_LEFT
                0x0803541c                CURVE_RIGHT
                0x08035420                CURVE_LEFT
                0x08035424                ASKEW_RIGHT
                0x08035428                ASKEW_LEFT
                0x0803542c                FWD_RIPPLE
                0x08035430                FWD_WAVE
 .rodata        0x080358c8       0x2c ..\obj\yume_flame_sensor.o
 .rodata        0x080358f4       0xf8 ..\obj\yume_ping_receiver.o
 .rodata        0x080359ec      0xa7c ..\obj\yume2016_algorithm.o
 .rodata.atanlo
                0x08036468       0x20 C:\Softwares\CooCox\GNU Tools ARM Embedded\4.6 2012q2\arm-none-eabi\lib\armv7e-m\fpu\libm.a(lib_a-s_atan.o)
 .rodata.atanhi
                0x08036488       0x20 C:\Softwares\CooCox\GNU Tools ARM Embedded\4.6 2012q2\arm-none-eabi\lib\armv7e-m\fpu\libm.a(lib_a-s_atan.o)
 .rodata.str1.4
                0x080364a8        0x5 C:\Softwares\CooCox\GNU Tools ARM Embedded\4.6 2012q2\arm-none-eabi\lib\armv7e-m\fpu\libm.a(lib_a-w_acos.o)
                                  0xc (size before relaxing)
 *fill*         0x080364ad        0x3 00
 .rodata.npio2_hw
                0x080364b0       0x80 C:\Softwares\CooCox\GNU Tools ARM Embedded\4.6 2012q2\arm-none-eabi\lib\armv7e-m\fpu\libm.a(lib_a-e_rem_pio2.o)
 .rodata.two_over_pi
                0x08036530      0x108 C:\Softwares\CooCox\GNU Tools ARM Embedded\4.6 2012q2\arm-none-eabi\lib\armv7e-m\fpu\libm.a(lib_a-e_rem_pio2.o)
 .rodata.init_jk
                0x08036638       0x10 C:\Softwares\CooCox\GNU Tools ARM Embedded\4.6 2012q2\arm-none-eabi\lib\armv7e-m\fpu\libm.a(lib_a-k_rem_pio2.o)
 .rodata.PIo2   0x08036648       0x40 C:\Softwares\CooCox\GNU Tools ARM Embedded\4.6 2012q2\arm-none-eabi\lib\armv7e-m\fpu\libm.a(lib_a-k_rem_pio2.o)
 .rodata.str1.4
                0x08036688        0x2 C:\Softwares\CooCox\GNU Tools ARM Embedded\4.6 2012q2\arm-none-eabi\lib\armv7e-m\fpu\libc.a(lib_a-impure.o)
                                  0x4 (size before relaxing)
 *fill*         0x0803668a        0x2 00
 .rodata.zeroes.6590
                0x0803668c       0x10 C:\Softwares\CooCox\GNU Tools ARM Embedded\4.6 2012q2\arm-none-eabi\lib\armv7e-m\fpu\libc.a(lib_a-svfprintf.o)
 .rodata.str1.4
                0x0803669c       0x42 C:\Softwares\CooCox\GNU Tools ARM Embedded\4.6 2012q2\arm-none-eabi\lib\armv7e-m\fpu\libc.a(lib_a-svfprintf.o)
                                 0x44 (size before relaxing)
 *fill*         0x080366de        0x2 00
 .rodata.blanks.6589
                0x080366e0       0x10 C:\Softwares\CooCox\GNU Tools ARM Embedded\4.6 2012q2\arm-none-eabi\lib\armv7e-m\fpu\libc.a(lib_a-svfprintf.o)
 .rodata.str1.4
                0x080366f0       0x10 C:\Softwares\CooCox\GNU Tools ARM Embedded\4.6 2012q2\arm-none-eabi\lib\armv7e-m\fpu\libc.a(lib_a-dtoa.o)
                                 0x14 (size before relaxing)
 .rodata.str1.4
                0x08036700        0xc C:\Softwares\CooCox\GNU Tools ARM Embedded\4.6 2012q2\arm-none-eabi\lib\armv7e-m\fpu\libc.a(lib_a-locale.o)
                                 0x14 (size before relaxing)
 *fill*         0x0803670c        0x4 00
 .rodata.__mprec_tens
                0x08036710       0xc8 C:\Softwares\CooCox\GNU Tools ARM Embedded\4.6 2012q2\arm-none-eabi\lib\armv7e-m\fpu\libc.a(lib_a-mprec.o)
                0x08036710                __mprec_tens
 .rodata.__mprec_bigtens
                0x080367d8       0x28 C:\Softwares\CooCox\GNU Tools ARM Embedded\4.6 2012q2\arm-none-eabi\lib\armv7e-m\fpu\libc.a(lib_a-mprec.o)
                0x080367d8                __mprec_bigtens
 .rodata.p05.5111
                0x08036800        0xc C:\Softwares\CooCox\GNU Tools ARM Embedded\4.6 2012q2\arm-none-eabi\lib\armv7e-m\fpu\libc.a(lib_a-mprec.o)
 *(.eh_fram e*)

.glue_7         0x0803680c        0x0
 .glue_7        0x00000000        0x0 linker stubs

.glue_7t        0x0803680c        0x0
 .glue_7t       0x00000000        0x0 linker stubs

.vfp11_veneer   0x0803680c        0x0
 .vfp11_veneer  0x00000000        0x0 linker stubs

.v4_bx          0x0803680c        0x0
 .v4_bx         0x00000000        0x0 linker stubs

.ARM.extab      0x0803680c       0x30
 *(.ARM.extab* .gnu.linkonce.armextab.*)
 .ARM.extab     0x0803680c       0x18 c:/softwares/coocox/gnu tools arm embedded/4.6 2012q2/bin/../lib/gcc/arm-none-eabi/4.6.2/armv7e-m/fpu\libgcc.a(unwind-arm.o)
 .ARM.extab     0x08036824       0x18 c:/softwares/coocox/gnu tools arm embedded/4.6 2012q2/bin/../lib/gcc/arm-none-eabi/4.6.2/armv7e-m/fpu\libgcc.a(pr-support.o)
                0x0803683c                __exidx_start = .

.ARM.exidx      0x0803683c       0xe0
 *(.ARM.exidx* .gnu.linkonce.armexidx.*)
 .ARM.exidx     0x0803683c        0x8 c:/softwares/coocox/gnu tools arm embedded/4.6 2012q2/bin/../lib/gcc/arm-none-eabi/4.6.2/armv7e-m/fpu\libgcc.a(bpabi.o)
                                 0x10 (size before relaxing)
 .ARM.exidx     0x08036844       0x88 c:/softwares/coocox/gnu tools arm embedded/4.6 2012q2/bin/../lib/gcc/arm-none-eabi/4.6.2/armv7e-m/fpu\libgcc.a(unwind-arm.o)
                                 0xc0 (size before relaxing)
 .ARM.exidx     0x080368cc       0x38 c:/softwares/coocox/gnu tools arm embedded/4.6 2012q2/bin/../lib/gcc/arm-none-eabi/4.6.2/armv7e-m/fpu\libgcc.a(pr-support.o)
                                 0x48 (size before relaxing)
 .ARM.exidx     0x08036904        0x8 c:/softwares/coocox/gnu tools arm embedded/4.6 2012q2/bin/../lib/gcc/arm-none-eabi/4.6.2/armv7e-m/fpu\libgcc.a(_divdi3.o)
 .ARM.exidx     0x0803690c       0x10 c:/softwares/coocox/gnu tools arm embedded/4.6 2012q2/bin/../lib/gcc/arm-none-eabi/4.6.2/armv7e-m/fpu\libgcc.a(_udivdi3.o)
                                  0x8 (size before relaxing)
                0x0803691c                __exidx_end = .
                0x0803691c                __etext = .
                0x0803691c                _sidata = __etext

.data           0x20000000      0xb44 load address 0x0803691c
                0x20000000                __data_start__ = .
                0x20000000                _sdata = __data_start__
 *(vtable)
 *(.data*)
 .data          0x20000000       0x10 ..\obj\stm32f4xx_rcc.o
 .data          0x20000010       0x14 ..\obj\system_stm32f4xx.o
                0x20000010                SystemCoreClock
                0x20000014                AHBPrescTable
 *fill*         0x20000024        0x4 00
 .data          0x20000028      0x278 ..\obj\yume_global_var.o
                0x20000028                COLOUR_BLACK
                0x2000002c                COLOUR_GRAY
                0x20000030                COLOUR_WHITE
                0x20000034                COLOUR_RED
                0x20000038                COLOUR_BLUE
                0x2000003c                FRONT_TCS3200
                0x20000040                MID_TCS3200
                0x20000044                CANDLE_CIRCLE_DETECTED
                0x20000048                ZONE_BLACK
                0x2000004c                ZONE_RED
                0x20000050                ZONE_BLUE
                0x20000054                TRACER
                0x20000058                LOCATION_ROOM
                0x2000005c                SHIFT_FOLLOW
                0x20000060                CAT_DETECTED
                0x20000064                led_counter
                0x20000066                sensor_UV_front
                0x20000067                sensor_UV_back
                0x20000068                COMMAND_FLAG_A
                0x2000006c                COMMAND_FLAG_B
                0x20000070                COMMAND_COMPLETED
                0x20000074                COMMAND_NOT_RECEIVED
                0x20000078                RAW_VAL_FLAG
                0x2000007c                sudut
                0x200000c4                correct
                0x2000010c                MPU6050_PWR_MGMT_1
                0x20000110                MPU6050_GYRO_CONFIG
                0x20000114                MPU6050_ACCEL_CONFIG
                0x20000118                Gyro_Sensitivity_500s
                0x20000120                PI
                0x20000128                GRAVITY
                0x20000130                TEST
                0x20000134                CALIBRATION_STAT
                0x20000138                HOME_CIRCLE_DETECTED
                0x2000013c                FOLLOWHOME_ACTIVE
                0x20000140                CROSS_ENABLED
                0x20000144                CROSSING_SUCCESS
                0x20000148                CROSSING_FAILED
                0x2000014c                STEALFIRE_SUCCESS
                0x20000150                STEALFIRE_FAILED
                0x20000154                ENEMY_ZONE
                0x20000158                SPECIAL_CONDITION_ENABLED
                0x2000015c                ROOM_FLAG
                0x20000164                PREVIOUS_ROOM
                0x20000168                OTHER_ROOM
                0x2000016c                ROOM_ONE
                0x20000170                WARZONE
                0x20000174                VAR_DOOR_DETECTED
                0x20000178                VAR_DOOR_SCAN
                0x2000017c                FOLLOW_CARPET_ENABLED
                0x20000180                FOLLOW_CARPET_ESCAPE_TRAP
                0x20000184                GET_VERSION
                0x20000188                GET_ANGLE_8_BIT
                0x2000018c                GET_ANGLE_16_BIT
                0x20000190                GET_PITCH
                0x20000194                GET_ROLL
                0x20000198                GET_PITCH_NO_KF
                0x2000019c                GET_ROLL_NO_KF
                0x200001a0                GET_MAG_RAW
                0x200001a4                GET_ACCEL_RAW
                0x200001a8                GET_GYRO_RAW
                0x200001ac                GET_TEMP
                0x200001b0                GET_ALL
                0x200001b4                CALIBRATE_BYTE_1
                0x200001b8                CALIBRATE_BYTE_2
                0x200001bc                CALIBRATE_BYTE_3_FULL
                0x200001c0                CALIBRATE_BYTE_3_FLAT
                0x200001c4                CALIBRATE_EXIT
                0x200001c8                RESTORE_1
                0x200001cc                RESTORE_2
                0x200001d0                RESTORE_3
                0x200001d4                BAUD_19200
                0x200001d8                BAUD_38400
                0x200001dc                FRONT_PREVIOUS
                0x200001e0                MIDDLE_PRESENT
                0x200001e4                MIDDLE_PREVIOUS
                0x200001e8                DUMMY_DATA_A
                0x200001ec                DUMMY_DATA_G
                0x200001f0                TRIAL_MODE
                0x200001f4                CALIBRATION_MODE
                0x200001f8                START_BUTTON_CMD
                0x200001fc                BUTTON_A
                0x20000200                BUTTON_B
                0x20000204                CMD_COMPLETED
                0x20000208                CMD_IDLE
                0x2000020c                TCS_CMD_SEND_RAW
                0x20000210                TRACER_CMD_SEND_RAW
                0x20000214                TCS_CMD_SEND_CONCLUSION
                0x20000218                TCS_CMD_SAVE_EEPROM
                0x2000021c                HYBRID_CMD_SEND_THRESHOLD
                0x20000220                RCV_IDLE
                0x20000224                RCV_START
                0x20000228                RCV_BUTTON_A
                0x2000022c                RCV_BUTTON_B
                0x20000230                ROOM
                0x20000248                ROOM_1A
                0x2000024c                ROOM_1B
                0x20000250                ROOM_1C
                0x20000254                ROOM_2A
                0x20000258                ROOM_2B
                0x2000025c                ROOM_3
                0x20000260                ROOM_4A
                0x20000264                ROOM_4B
                0x20000268                NORMAL_ROOM
                0x2000026c                GRAY_ROOM
                0x20000270                TRC_BMP_ACTIVE
                0x20000274                TRACER_ACTIVE
                0x20000278                FOLLOWTRACER_ENABLE
                0x2000027c                ROOM1FLAG_ACTIVE
                0x20000280                ROOM4AFLAG_ACTIVE
                0x20000284                ROOM1A_SP_EXIT_FLAG_ACTIVE
                0x20000288                ROOM4A_CAT_AVOIDER_ACTIVE
                0x2000028c                R2TO4A_SP_ACTIVE
                0x20000290                SHIFT_ALGORITHM_ACTIVE
                0x20000294                TURN_LEFT
                0x20000298                TURN_RIGHT
 .data          0x200002a0       0x28 ..\obj\yume2016_algorithm.o
 .data.__fdlib_version
                0x200002c8        0x1 C:\Softwares\CooCox\GNU Tools ARM Embedded\4.6 2012q2\arm-none-eabi\lib\armv7e-m\fpu\libm.a(lib_a-s_lib_ver.o)
                0x200002c8                __fdlib_version
 *fill*         0x200002c9        0x7 00
 .data.impure_data
                0x200002d0      0x428 C:\Softwares\CooCox\GNU Tools ARM Embedded\4.6 2012q2\arm-none-eabi\lib\armv7e-m\fpu\libc.a(lib_a-impure.o)
 .data._impure_ptr
                0x200006f8        0x4 C:\Softwares\CooCox\GNU Tools ARM Embedded\4.6 2012q2\arm-none-eabi\lib\armv7e-m\fpu\libc.a(lib_a-impure.o)
                0x200006f8                _impure_ptr
 .data.lconv    0x200006fc       0x38 C:\Softwares\CooCox\GNU Tools ARM Embedded\4.6 2012q2\arm-none-eabi\lib\armv7e-m\fpu\libc.a(lib_a-locale.o)
 .data.__malloc_av_
                0x20000734      0x408 C:\Softwares\CooCox\GNU Tools ARM Embedded\4.6 2012q2\arm-none-eabi\lib\armv7e-m\fpu\libc.a(lib_a-mallocr.o)
                0x20000734                __malloc_av_
 .data.__malloc_trim_threshold
                0x20000b3c        0x4 C:\Softwares\CooCox\GNU Tools ARM Embedded\4.6 2012q2\arm-none-eabi\lib\armv7e-m\fpu\libc.a(lib_a-mallocr.o)
                0x20000b3c                __malloc_trim_threshold
 .data.__malloc_sbrk_base
                0x20000b40        0x4 C:\Softwares\CooCox\GNU Tools ARM Embedded\4.6 2012q2\arm-none-eabi\lib\armv7e-m\fpu\libc.a(lib_a-mallocr.o)
                0x20000b40                __malloc_sbrk_base
                0x20000b44                . = ALIGN (0x4)
                0x20000b44                PROVIDE (__preinit_array_start, .)
 *(.preinit_array)
                0x20000b44                PROVIDE (__preinit_array_end, .)
                0x20000b44                . = ALIGN (0x4)
                0x20000b44                PROVIDE (__init_array_start, .)
 *(SORT(.init_array.*))
 *(.init_array)
                0x20000b44                PROVIDE (__init_array_end, .)
                0x20000b44                . = ALIGN (0x4)
                0x20000b44                PROVIDE (__fini_array_start, .)
 *(SORT(.fini_array.*))
 *(.fini_array)
                0x20000b44                PROVIDE (__fini_array_end, .)
 *(.jcr*)
                0x20000b44                . = ALIGN (0x4)
                0x20000b44                __data_end__ = .
                0x20000b44                _edata = __data_end__

.bss            0x20000b44     0x30f8 load address 0x08037460
                0x20000b44                . = ALIGN (0x4)
                0x20000b44                __bss_start__ = .
                0x20000b44                _sbss = __bss_start__
 *(.bss*)
 .bss           0x20000b44        0x4 ..\obj\yume_usart_comm.o
 .bss           0x20000b48        0x4 ..\obj\yume_systick_delay.o
 .bss           0x20000b4c        0x4 ..\obj\syscalls.o
 .bss           0x20000b50      0x244 ..\obj\yume_global_var.o
                0x20000b50                COLUR_NONE
                0x20000b54                F_DETECTED_COLOUR
                0x20000b58                M_DETECTED_COLOUR
                0x20000b5c                F_sum_red
                0x20000b60                F_sum_blue
                0x20000b64                F_sum_white
                0x20000b68                F_THRESHOLD
                0x20000b6c                F_TOTAL_SUM
                0x20000b70                M_sum_red
                0x20000b74                M_sum_blue
                0x20000b78                M_sum_white
                0x20000b7c                M_THRESHOLD
                0x20000b80                M_TOTAL_SUM
                0x20000b84                CANDLE_CIRCLE_FLAG
                0x20000b88                INITIAL_ZONE
                0x20000b8c                ZONE
                0x20000b90                YUME_CROSS_MODE
                0x20000b94                START_MODE
                0x20000b98                YUME_LOCATION
                0x20000ba0                LOCATION_CORRIDOR
                0x20000ba4                EXTINGUISHED_FIRE
                0x20000ba8                FIRE_PUTOFF
                0x20000bac                CAT_FOUND
                0x20000bb4                CAT_SHIFT_FOLLOW
                0x20000bb8                NO_SHIFT
                0x20000bbc                CAT_FLAG
                0x20000bc0                CAT_NOT_DETECTED
                0x20000bc4                YUME_Sound_Activate
                0x20000bc6                YUME_START
                0x20000bc8                UV_Lock
                0x20000bcc                led_off_counter
                0x20000bd0                sudut_servo
                0x20000bd4                sensor_UV_lock
                0x20000bd5                fight
                0x20000bd6                hitung
                0x20000bd8                panas
                0x20000bdc                i
                0x20000be0                temp
                0x20000be4                suhu_ruang
                0x20000be8                FIRE
                0x20000bec                USART_Count
                0x20000bf0                USARTFlame_Counter
                0x20000bf4                USARTFlameDigi_Counter
                0x20000bf8                USART_Bluetooth_Count
                0x20000bfc                x
                0x20000c00                Gyro_Sensitivity_250s
                0x20000c04                Accelerometer_Range
                0x20000c08                ROOM_COUNTER
                0x20000c0c                WARZONE_FLAG
                0x20000c10                SPECIAL_ZONE_FLAG
                0x20000c14                HOME_CIRCLE_FLAG
                0x20000c18                HOME_CIRCLE_NOT_DETECTED
                0x20000c1c                FOLLOWHOME_FLAG
                0x20000c20                FOLLOWHOME_INACTIVE
                0x20000c24                firetrack_counter
                0x20000c28                YUME_FOUND_FIRE_OVERRIDE
                0x20000c2c                EXTINGUISHER_FLAG
                0x20000c30                ROOM1_FLAG
                0x20000c34                WARZONE_COUNTER
                0x20000c38                global_counter
                0x20000c3c                YUME_CROSSING_AUTHORITY
                0x20000c40                CROSS_DISABLED
                0x20000c44                YUME_CROSSING_STATUS
                0x20000c48                NO_CROSSING
                0x20000c4c                STEAL_FIRE_STAT
                0x20000c50                STEAL_FIRE_COUNTER
                0x20000c54                ENEMY_ZONE_STAT
                0x20000c58                COMFORT_ZONE
                0x20000c5c                SPECIAL_CONDITION_FLAG
                0x20000c60                SPECIAL_CONDITION_DISABLED
                0x20000c64                SPECIAL_CONDITION_COUNTER
                0x20000c68                PRESENT_ROOM
                0x20000c6c                VARIABLE_DOOR
                0x20000c70                VAR_DOOR_NOT_DETECTED
                0x20000c74                FIRST_CAT_ENCOUNTER
                0x20000c78                RETURN_COUNTER
                0x20000c7c                FOLLOW_CARPET_FLAG
                0x20000c80                FOLLOW_CARPET_DISABLED
                0x20000c84                Arm_Angle
                0x20000c90                Arm_Correction
                0x20000c9c                USART2_DATA
                0x20000cb4                CMPS11_COMPASS_ANGLE
                0x20000cb8                RETURN_TRIP_FLAG
                0x20000cbc                FlameSense
                0x20000cc4                FollowFlame_Flag
                0x20000cc8                FlameTrack_Flag
                0x20000ccc                FlameScan_Flag
                0x20000cd0                FlameExtinguish_Flag
                0x20000cd4                FlameApproach_Flag
                0x20000cd8                FlameSenseDigi
                0x20000ce0                FlameFrontDigi
                0x20000ce8                BUMPER
                0x20000cf0                TCS3200_SLV_CNT
                0x20000cf4                TCS3200_SLV_STAT
                0x20000d04                FRONT_PRESENT
                0x20000d08                TCS3200_SLV_DATA
                0x20000d34                TCS3200_CMD_CODE
                0x20000d48                HALLWAY_SC
                0x20000d4c                ROOM_TYPE
                0x20000d50                TRC_BMP_INACTIVE
                0x20000d54                TRACER_STAT
                0x20000d58                TRACER_INACTIVE
                0x20000d5c                FOLLOWTRACER_FLAG
                0x20000d60                FOLLOWTRACER_DISABLE
                0x20000d64                CANDLE_STICK
                0x20000d68                CANDLE_FIRE
                0x20000d6c                CANDLE_STAT
                0x20000d70                ROOM1FLAG_INACTIVE
                0x20000d74                ROOM4AFLAG_INACTIVE
                0x20000d78                ROOM1A_SP_EXIT_FLAG_INACTIVE
                0x20000d7c                ROOM4A_CAT_AVOIDER_INACTIVE
                0x20000d80                R2TO4A_SP_ROUTE
                0x20000d84                R2TO4A_SP_INACTIVE
                0x20000d88                SHIFT_ALGORITHM_INACTIVE
                0x20000d8c                RIGHT_OVERFLOW_COUNTER
                0x20000d90                LEFT_OVERFLOW_COUNTER
 .bss           0x20000d94        0x1 ..\obj\yume_ping_receiver.o
 *fill*         0x20000d95        0x3 00
 .bss           0x20000d98       0x40 ..\obj\yume2016_algorithm.o
 .bss.__malloc_max_total_mem
                0x20000dd8        0x4 C:\Softwares\CooCox\GNU Tools ARM Embedded\4.6 2012q2\arm-none-eabi\lib\armv7e-m\fpu\libc.a(lib_a-mallocr.o)
                0x20000dd8                __malloc_max_total_mem
 .bss.__malloc_max_sbrked_mem
                0x20000ddc        0x4 C:\Softwares\CooCox\GNU Tools ARM Embedded\4.6 2012q2\arm-none-eabi\lib\armv7e-m\fpu\libc.a(lib_a-mallocr.o)
                0x20000ddc                __malloc_max_sbrked_mem
 .bss.__malloc_top_pad
                0x20000de0        0x4 C:\Softwares\CooCox\GNU Tools ARM Embedded\4.6 2012q2\arm-none-eabi\lib\armv7e-m\fpu\libc.a(lib_a-mallocr.o)
                0x20000de0                __malloc_top_pad
 .bss.__malloc_current_mallinfo
                0x20000de4       0x28 C:\Softwares\CooCox\GNU Tools ARM Embedded\4.6 2012q2\arm-none-eabi\lib\armv7e-m\fpu\libc.a(lib_a-mallocr.o)
                0x20000de4                __malloc_current_mallinfo
 *(COMMON)
 COMMON         0x20000e0c      0x2c0 ..\obj\yume_bumper.o
                0x20000e0c                lcd
                0x20000e1c                RWS_Byte
                0x20000e20                GPIO_I2C
                0x20000e28                TIM_TimeBaseStructure
                0x20000e34                Load_Long_Byte
                0x20000e38                Position_Low_Byte
                0x20000e39                Checksum
                0x20000e3a                Speed_Low_Byte
                0x20000e3c                YUME_CMPS11
                0x20000e78                ADC_InitStructure
                0x20000e90                PID_FLAME
                0x20000ee8                Load_High_Byte
                0x20000eec                I2C_InitStructure
                0x20000efc                PID_F_L
                0x20000f54                Incoming_Byte
                0x20000f58                Moving_Byte
                0x20000f5c                Error_Byte
                0x20000f60                Speed_High_Byte
                0x20000f61                Direction_Pin
                0x20000f62                Position_High_Byte
                0x20000f64                TIM_OCInitStructure
                0x20000f78                Speed_Long_Byte
                0x20000f7c                PID_DFL_R
                0x20000fd4                Position_Long_Byte
                0x20000fd8                Voltage_Byte
                0x20000fdc                PID_F_R
                0x20001034                GPIO_InitStructure
                0x2000103c                USART_InitStructure
                0x2000104c                Time_Counter
                0x2000104d                Load_Low_Byte
                0x20001050                NVIC_InitStructure
                0x20001054                ADC_CommonInitStructure
                0x20001064                temp_angle
                0x20001070                Temperature_Byte
                0x20001074                PID_DFL_L
 COMMON         0x200010cc        0x4 ..\obj\yume_articulated_manipulator.o
                0x200010cc                arm_counter
 COMMON         0x200010d0     0x2b68 ..\obj\yume_global_var.o
                0x200010d0                HOME
                0x200010d4                ROOM4A_FLAG
                0x200010d8                I2C2_DATA
                0x200010e4                leg
                0x200010e8                b
                0x200010ec                DATA
                0x200010f0                dummy_correct
                0x20001138                Gyro_Mult
                0x2000113c                ARM_CCR2_Val
                0x20001140                c4
                0x20001144                c2
                0x20001148                INFRARED
                0x20001168                SHIFT_ALGORITHM_FLAG
                0x2000116c                data1_lcd
                0x2000117c                CCR1_Val
                0x20001180                phi
                0x20001198                sudut_awal
                0x200011e0                ACCEL_DEG
                0x200011e4                nCount
                0x200011e8                index_servo
                0x200011ec                A_body
                0x200011f0                FLAME_SENSOR
                0x200011f8                sudut_tahap1
                0x20001240                ROOM4A_CAT_AVOIDER
                0x20001244                COLOUR_STAT
                0x20001248                I2C1_DATA
                0x20001254                Lsem
                0x20001258                z_A
                0x200012a0                TRACER_FLAG
                0x200012a4                FLAME_SIDE
                0x200012a8                suhu_pixel
                0x200012b0                Ping
                0x200012d4                tampil_adc
                0x200012e4                epsilon
                0x200012fc                pixel
                0x20001308                Count
                0x2000130c                c1
                0x20001310                TRACER_IN_BUMPER
                0x20001314                I2C3_DATA
                0x20001320                ARM_CCR3_Val
                0x20001324                c
                0x20001325                v
                0x20001328                leg_next
                0x20001340                M_TRACER
                0x20001344                sudut_target
                0x2000138c                A_leg
                0x200013a4                M_sum_green
                0x200013a8                Acce_Mult
                0x200013ac                pembagi
                0x200013b0                F_TRACER
                0x200013b4                data2_lcd
                0x200013c4                y
                0x200013c8                command_code
                0x200013cd                d
                0x200013d0                PrescalerValue
                0x200013d4                ARM_CCR1_Val
                0x200013d8                UV_state
                0x200013dc                GYRO_DEG
                0x200013e0                ROOM1A_SP_EXIT_FLAG
                0x200013e4                temp_var
                0x200013e8                sudut_tahap2
                0x20001430                rot_switch_mode
                0x20001434                P_body
                0x20001438                F_sum_green
                0x2000143c                beta
                0x20001454                buf
                0x20001464                y_A
                0x200014ac                c3
                0x200014b0                CCR2_Val
                0x200014b4                tcs3200
                0x200014b8                epsilon_body
                0x200014bc                SHARP
                0x200014c8                a
                0x200014cc                P_leg
                0x200014e4                lambpsi
                0x200014fc                regs
                0x20001500                CCR3_Val
                0x20001504                ADCResult
                0x20001508                ww
                0x20001520                index_bantu
                0x20001524                temp_var2
                0x20001528                received_string
 COMMON         0x20003c38        0x4 C:\Softwares\CooCox\GNU Tools ARM Embedded\4.6 2012q2\arm-none-eabi\lib\armv7e-m\fpu\libc.a(lib_a-reent.o)
                0x20003c38                errno
                0x20003c3c                . = ALIGN (0x4)
                0x20003c3c                __bss_end__ = .
                0x20003c3c                _ebss = __bss_end__

.heap           0x20003c3c        0x0
                0x20003c3c                __end__ = .
                0x20003c3c                _end = __end__
                0x20003c3c                end = __end__
 *(.heap*)
                0x20003c3c                __HeapLimit = .

.co_stack       0x20003c3c      0x804 load address 0x0803a558
                0x20003c40                . = ALIGN (0x8)
 *fill*         0x20003c3c        0x4 00
 *(.co_stack .co_stack.*)
 .co_stack      0x20003c40      0x800 ..\obj\startup_stm32f4xx.o
                0x20003c40                pulStack
                0x20020000                __StackTop = (ORIGIN (ram) + 0x20000)
                0x2001f7fc                __StackLimit = (__StackTop - SIZEOF (.co_stack))
                0x20020000                PROVIDE (__stack, __StackTop)
                0x00000001                ASSERT ((__StackLimit >= __HeapLimit), region ram  overflowed with stack)
LOAD ..\obj\yume_bumper.o
LOAD ..\obj\yume_lcd.o
LOAD ..\obj\yume_mpu6050.o
LOAD ..\obj\yume_rotary_switch.o
LOAD ..\obj\yume_tcs3200_receiver.o
LOAD ..\obj\stm32f4xx_usart.o
LOAD ..\obj\yume_articulated_manipulator.o
LOAD ..\obj\yume_gy_85.o
LOAD ..\obj\yume_usart_comm.o
LOAD ..\obj\startup_stm32f4xx.o
LOAD ..\obj\yume_extinguisher.o
LOAD ..\obj\main.o
LOAD ..\obj\stm32f4xx_rcc.o
LOAD ..\obj\yume_cmps11.o
LOAD ..\obj\yume_bldc_fan.o
LOAD ..\obj\yume_i2c_lcd.o
LOAD ..\obj\stm32f4xx_adc.o
LOAD ..\obj\yume_utilities.o
LOAD ..\obj\yume_systick_delay.o
LOAD ..\obj\yume_tpa_servo.o
LOAD ..\obj\yume_sound_activation.o
LOAD ..\obj\stm32f4xx_gpio.o
LOAD ..\obj\system_stm32f4xx.o
LOAD ..\obj\syscalls.o
LOAD ..\obj\yume_tcs3200.o
LOAD ..\obj\yume_algorithm.o
LOAD ..\obj\yume_global_var.o
LOAD ..\obj\yume_infrared_proximity.o
LOAD ..\obj\yume_pid_controller.o
LOAD ..\obj\yume_user_interface.o
LOAD ..\obj\stm32f4xx_i2c.o
LOAD ..\obj\yume_hexapod_cmd.o
LOAD ..\obj\yume_dynamixel_xl_320.o
LOAD ..\obj\yume_flame_sensor.o
LOAD ..\obj\misc.o
LOAD ..\obj\yume_ping_receiver.o
LOAD ..\obj\yume2016_algorithm.o
LOAD ..\obj\yume_UV-TRON.o
LOAD ..\obj\yume_interrupt_monitor.o
LOAD ..\obj\stm32f4xx_tim.o
LOAD C:\Softwares\CooCox\GNU Tools ARM Embedded\4.6 2012q2\arm-none-eabi\lib\armv7e-m\fpu\libm.a
LOAD c:/softwares/coocox/gnu tools arm embedded/4.6 2012q2/bin/../lib/gcc/arm-none-eabi/4.6.2/armv7e-m/fpu\libgcc.a
LOAD C:\Softwares\CooCox\GNU Tools ARM Embedded\4.6 2012q2\arm-none-eabi\lib\armv7e-m\fpu\libc.a
START GROUP
LOAD c:/softwares/coocox/gnu tools arm embedded/4.6 2012q2/bin/../lib/gcc/arm-none-eabi/4.6.2/armv7e-m/fpu\libgcc.a
LOAD C:\Softwares\CooCox\GNU Tools ARM Embedded\4.6 2012q2\arm-none-eabi\lib\armv7e-m\fpu\libg.a
LOAD C:\Softwares\CooCox\GNU Tools ARM Embedded\4.6 2012q2\arm-none-eabi\lib\armv7e-m\fpu\libc.a
END GROUP
OUTPUT(YUME_2.16_Main_Controller_Ver.1.0.elf elf32-littlearm)

.debug_info     0x00000000    0x22953
 .debug_info    0x00000000      0xb27 ..\obj\yume_bumper.o
 .debug_info    0x00000b27      0x6b4 ..\obj\yume_lcd.o
 .debug_info    0x000011db     0x1501 ..\obj\yume_mpu6050.o
 .debug_info    0x000026dc      0xcf4 ..\obj\yume_rotary_switch.o
 .debug_info    0x000033d0     0x12bb ..\obj\yume_tcs3200_receiver.o
 .debug_info    0x0000468b      0xa4f ..\obj\stm32f4xx_usart.o
 .debug_info    0x000050da     0x1054 ..\obj\yume_articulated_manipulator.o
 .debug_info    0x0000612e     0x113d ..\obj\yume_gy_85.o
 .debug_info    0x0000726b     0x14ee ..\obj\yume_usart_comm.o
 .debug_info    0x00008759      0x147 ..\obj\startup_stm32f4xx.o
 .debug_info    0x000088a0      0xab6 ..\obj\yume_extinguisher.o
 .debug_info    0x00009356      0xd28 ..\obj\main.o
 .debug_info    0x0000a07e      0xd24 ..\obj\stm32f4xx_rcc.o
 .debug_info    0x0000ada2     0x1471 ..\obj\yume_cmps11.o
 .debug_info    0x0000c213      0xd03 ..\obj\yume_bldc_fan.o
 .debug_info    0x0000cf16      0xba8 ..\obj\yume_i2c_lcd.o
 .debug_info    0x0000dabe      0xcf5 ..\obj\stm32f4xx_adc.o
 .debug_info    0x0000e7b3      0x998 ..\obj\yume_utilities.o
 .debug_info    0x0000f14b      0x794 ..\obj\yume_systick_delay.o
 .debug_info    0x0000f8df     0x13ec ..\obj\yume_tpa_servo.o
 .debug_info    0x00010ccb      0xaa6 ..\obj\yume_sound_activation.o
 .debug_info    0x00011771      0x639 ..\obj\stm32f4xx_gpio.o
 .debug_info    0x00011daa      0x61d ..\obj\system_stm32f4xx.o
 .debug_info    0x000123c7      0x440 ..\obj\syscalls.o
 .debug_info    0x00012807     0x229b ..\obj\yume_global_var.o
 .debug_info    0x00014aa2      0xad6 ..\obj\yume_infrared_proximity.o
 .debug_info    0x00015578      0xb57 ..\obj\yume_pid_controller.o
 .debug_info    0x000160cf      0xc08 ..\obj\yume_user_interface.o
 .debug_info    0x00016cd7      0xb91 ..\obj\stm32f4xx_i2c.o
 .debug_info    0x00017868     0x1afa ..\obj\yume_hexapod_cmd.o
 .debug_info    0x00019362      0xefe ..\obj\yume_dynamixel_xl_320.o
 .debug_info    0x0001a260      0xddc ..\obj\yume_flame_sensor.o
 .debug_info    0x0001b03c      0x594 ..\obj\misc.o
 .debug_info    0x0001b5d0      0xf4d ..\obj\yume_ping_receiver.o
 .debug_info    0x0001c51d     0x31df ..\obj\yume2016_algorithm.o
 .debug_info    0x0001f6fc      0xad0 ..\obj\yume_UV-TRON.o
 .debug_info    0x000201cc      0x95f ..\obj\yume_interrupt_monitor.o
 .debug_info    0x00020b2b     0x1e28 ..\obj\stm32f4xx_tim.o

.debug_abbrev   0x00000000     0x3aa5
 .debug_abbrev  0x00000000      0x1a6 ..\obj\yume_bumper.o
 .debug_abbrev  0x000001a6      0x1ac ..\obj\yume_lcd.o
 .debug_abbrev  0x00000352      0x1eb ..\obj\yume_mpu6050.o
 .debug_abbrev  0x0000053d      0x177 ..\obj\yume_rotary_switch.o
 .debug_abbrev  0x000006b4      0x208 ..\obj\yume_tcs3200_receiver.o
 .debug_abbrev  0x000008bc      0x14e ..\obj\stm32f4xx_usart.o
 .debug_abbrev  0x00000a0a      0x1bb ..\obj\yume_articulated_manipulator.o
 .debug_abbrev  0x00000bc5      0x1f4 ..\obj\yume_gy_85.o
 .debug_abbrev  0x00000db9      0x238 ..\obj\yume_usart_comm.o
 .debug_abbrev  0x00000ff1       0xac ..\obj\startup_stm32f4xx.o
 .debug_abbrev  0x0000109d      0x151 ..\obj\yume_extinguisher.o
 .debug_abbrev  0x000011ee      0x1c2 ..\obj\main.o
 .debug_abbrev  0x000013b0      0x1b7 ..\obj\stm32f4xx_rcc.o
 .debug_abbrev  0x00001567      0x23c ..\obj\yume_cmps11.o
 .debug_abbrev  0x000017a3      0x140 ..\obj\yume_bldc_fan.o
 .debug_abbrev  0x000018e3      0x166 ..\obj\yume_i2c_lcd.o
 .debug_abbrev  0x00001a49      0x189 ..\obj\stm32f4xx_adc.o
 .debug_abbrev  0x00001bd2      0x126 ..\obj\yume_utilities.o
 .debug_abbrev  0x00001cf8      0x171 ..\obj\yume_systick_delay.o
 .debug_abbrev  0x00001e69      0x1f9 ..\obj\yume_tpa_servo.o
 .debug_abbrev  0x00002062      0x151 ..\obj\yume_sound_activation.o
 .debug_abbrev  0x000021b3      0x182 ..\obj\stm32f4xx_gpio.o
 .debug_abbrev  0x00002335      0x140 ..\obj\system_stm32f4xx.o
 .debug_abbrev  0x00002475       0xde ..\obj\syscalls.o
 .debug_abbrev  0x00002553        0x1 ..\obj\yume_tcs3200.o
 .debug_abbrev  0x00002554        0x1 ..\obj\yume_algorithm.o
 .debug_abbrev  0x00002555      0x11f ..\obj\yume_global_var.o
 .debug_abbrev  0x00002674      0x156 ..\obj\yume_infrared_proximity.o
 .debug_abbrev  0x000027ca      0x18c ..\obj\yume_pid_controller.o
 .debug_abbrev  0x00002956      0x15e ..\obj\yume_user_interface.o
 .debug_abbrev  0x00002ab4      0x15d ..\obj\stm32f4xx_i2c.o
 .debug_abbrev  0x00002c11      0x230 ..\obj\yume_hexapod_cmd.o
 .debug_abbrev  0x00002e41      0x1b8 ..\obj\yume_dynamixel_xl_320.o
 .debug_abbrev  0x00002ff9      0x1a1 ..\obj\yume_flame_sensor.o
 .debug_abbrev  0x0000319a      0x126 ..\obj\misc.o
 .debug_abbrev  0x000032c0      0x1d3 ..\obj\yume_ping_receiver.o
 .debug_abbrev  0x00003493      0x271 ..\obj\yume2016_algorithm.o
 .debug_abbrev  0x00003704      0x151 ..\obj\yume_UV-TRON.o
 .debug_abbrev  0x00003855       0xed ..\obj\yume_interrupt_monitor.o
 .debug_abbrev  0x00003942      0x163 ..\obj\stm32f4xx_tim.o

.debug_loc      0x00000000     0x84ea
 .debug_loc     0x00000000       0xbc ..\obj\yume_bumper.o
 .debug_loc     0x000000bc      0x58c ..\obj\yume_lcd.o
 .debug_loc     0x00000648      0x1e8 ..\obj\yume_mpu6050.o
 .debug_loc     0x00000830       0x90 ..\obj\yume_rotary_switch.o
 .debug_loc     0x000008c0      0x320 ..\obj\yume_tcs3200_receiver.o
 .debug_loc     0x00000be0      0x658 ..\obj\stm32f4xx_usart.o
 .debug_loc     0x00001238      0x120 ..\obj\yume_articulated_manipulator.o
 .debug_loc     0x00001358      0x218 ..\obj\yume_gy_85.o
 .debug_loc     0x00001570      0x368 ..\obj\yume_usart_comm.o
 .debug_loc     0x000018d8       0x64 ..\obj\startup_stm32f4xx.o
 .debug_loc     0x0000193c       0xb0 ..\obj\yume_extinguisher.o
 .debug_loc     0x000019ec       0x64 ..\obj\main.o
 .debug_loc     0x00001a50      0x97c ..\obj\stm32f4xx_rcc.o
 .debug_loc     0x000023cc      0x5d8 ..\obj\yume_cmps11.o
 .debug_loc     0x000029a4      0x108 ..\obj\yume_bldc_fan.o
 .debug_loc     0x00002aac       0x64 ..\obj\yume_i2c_lcd.o
 .debug_loc     0x00002b10      0x838 ..\obj\stm32f4xx_adc.o
 .debug_loc     0x00003348       0x38 ..\obj\yume_utilities.o
 .debug_loc     0x00003380      0x190 ..\obj\yume_systick_delay.o
 .debug_loc     0x00003510      0x390 ..\obj\yume_tpa_servo.o
 .debug_loc     0x000038a0       0x58 ..\obj\yume_sound_activation.o
 .debug_loc     0x000038f8      0x310 ..\obj\stm32f4xx_gpio.o
 .debug_loc     0x00003c08       0x9c ..\obj\system_stm32f4xx.o
 .debug_loc     0x00003ca4      0x1ec ..\obj\syscalls.o
 .debug_loc     0x00003e90       0xdc ..\obj\yume_infrared_proximity.o
 .debug_loc     0x00003f6c      0x140 ..\obj\yume_pid_controller.o
 .debug_loc     0x000040ac      0x1fc ..\obj\yume_user_interface.o
 .debug_loc     0x000042a8      0x738 ..\obj\stm32f4xx_i2c.o
 .debug_loc     0x000049e0      0x6c0 ..\obj\yume_hexapod_cmd.o
 .debug_loc     0x000050a0      0x11a ..\obj\yume_dynamixel_xl_320.o
 .debug_loc     0x000051ba      0x100 ..\obj\yume_flame_sensor.o
 .debug_loc     0x000052ba      0x118 ..\obj\misc.o
 .debug_loc     0x000053d2      0x138 ..\obj\yume_ping_receiver.o
 .debug_loc     0x0000550a     0x1b10 ..\obj\yume2016_algorithm.o
 .debug_loc     0x0000701a       0xb0 ..\obj\yume_UV-TRON.o
 .debug_loc     0x000070ca     0x1420 ..\obj\stm32f4xx_tim.o

.debug_aranges  0x00000000     0x17b0
 .debug_aranges
                0x00000000       0x38 ..\obj\yume_bumper.o
 .debug_aranges
                0x00000038      0x100 ..\obj\yume_lcd.o
 .debug_aranges
                0x00000138       0x68 ..\obj\yume_mpu6050.o
 .debug_aranges
                0x000001a0       0x30 ..\obj\yume_rotary_switch.o
 .debug_aranges
                0x000001d0       0x98 ..\obj\yume_tcs3200_receiver.o
 .debug_aranges
                0x00000268      0x100 ..\obj\stm32f4xx_usart.o
 .debug_aranges
                0x00000368       0x48 ..\obj\yume_articulated_manipulator.o
 .debug_aranges
                0x000003b0       0x68 ..\obj\yume_gy_85.o
 .debug_aranges
                0x00000418       0x98 ..\obj\yume_usart_comm.o
 .debug_aranges
                0x000004b0       0x28 ..\obj\startup_stm32f4xx.o
 .debug_aranges
                0x000004d8       0x38 ..\obj\yume_extinguisher.o
 .debug_aranges
                0x00000510       0x28 ..\obj\main.o
 .debug_aranges
                0x00000538      0x178 ..\obj\stm32f4xx_rcc.o
 .debug_aranges
                0x000006b0       0xf8 ..\obj\yume_cmps11.o
 .debug_aranges
                0x000007a8       0x48 ..\obj\yume_bldc_fan.o
 .debug_aranges
                0x000007f0       0x28 ..\obj\yume_i2c_lcd.o
 .debug_aranges
                0x00000818      0x148 ..\obj\stm32f4xx_adc.o
 .debug_aranges
                0x00000960       0x20 ..\obj\yume_utilities.o
 .debug_aranges
                0x00000980       0x58 ..\obj\yume_systick_delay.o
 .debug_aranges
                0x000009d8       0xa8 ..\obj\yume_tpa_servo.o
 .debug_aranges
                0x00000a80       0x28 ..\obj\yume_sound_activation.o
 .debug_aranges
                0x00000aa8       0x88 ..\obj\stm32f4xx_gpio.o
 .debug_aranges
                0x00000b30       0x30 ..\obj\system_stm32f4xx.o
 .debug_aranges
                0x00000b60       0x60 ..\obj\syscalls.o
 .debug_aranges
                0x00000bc0       0x40 ..\obj\yume_infrared_proximity.o
 .debug_aranges
                0x00000c00       0x50 ..\obj\yume_pid_controller.o
 .debug_aranges
                0x00000c50       0x70 ..\obj\yume_user_interface.o
 .debug_aranges
                0x00000cc0      0x120 ..\obj\stm32f4xx_i2c.o
 .debug_aranges
                0x00000de0      0x120 ..\obj\yume_hexapod_cmd.o
 .debug_aranges
                0x00000f00       0x40 ..\obj\yume_dynamixel_xl_320.o
 .debug_aranges
                0x00000f40       0x40 ..\obj\yume_flame_sensor.o
 .debug_aranges
                0x00000f80       0x40 ..\obj\misc.o
 .debug_aranges
                0x00000fc0       0x48 ..\obj\yume_ping_receiver.o
 .debug_aranges
                0x00001008      0x478 ..\obj\yume2016_algorithm.o
 .debug_aranges
                0x00001480       0x38 ..\obj\yume_UV-TRON.o
 .debug_aranges
                0x000014b8      0x2f8 ..\obj\stm32f4xx_tim.o

.debug_ranges   0x00000000     0x15a8
 .debug_ranges  0x00000000       0x28 ..\obj\yume_bumper.o
 .debug_ranges  0x00000028       0xf0 ..\obj\yume_lcd.o
 .debug_ranges  0x00000118       0x58 ..\obj\yume_mpu6050.o
 .debug_ranges  0x00000170       0x20 ..\obj\yume_rotary_switch.o
 .debug_ranges  0x00000190       0x88 ..\obj\yume_tcs3200_receiver.o
 .debug_ranges  0x00000218       0xf0 ..\obj\stm32f4xx_usart.o
 .debug_ranges  0x00000308       0x38 ..\obj\yume_articulated_manipulator.o
 .debug_ranges  0x00000340       0x58 ..\obj\yume_gy_85.o
 .debug_ranges  0x00000398       0x88 ..\obj\yume_usart_comm.o
 .debug_ranges  0x00000420       0x18 ..\obj\startup_stm32f4xx.o
 .debug_ranges  0x00000438       0x28 ..\obj\yume_extinguisher.o
 .debug_ranges  0x00000460       0x18 ..\obj\main.o
 .debug_ranges  0x00000478      0x168 ..\obj\stm32f4xx_rcc.o
 .debug_ranges  0x000005e0       0xe8 ..\obj\yume_cmps11.o
 .debug_ranges  0x000006c8       0x38 ..\obj\yume_bldc_fan.o
 .debug_ranges  0x00000700       0x18 ..\obj\yume_i2c_lcd.o
 .debug_ranges  0x00000718      0x138 ..\obj\stm32f4xx_adc.o
 .debug_ranges  0x00000850       0x10 ..\obj\yume_utilities.o
 .debug_ranges  0x00000860       0x48 ..\obj\yume_systick_delay.o
 .debug_ranges  0x000008a8       0x98 ..\obj\yume_tpa_servo.o
 .debug_ranges  0x00000940       0x18 ..\obj\yume_sound_activation.o
 .debug_ranges  0x00000958       0x78 ..\obj\stm32f4xx_gpio.o
 .debug_ranges  0x000009d0       0x20 ..\obj\system_stm32f4xx.o
 .debug_ranges  0x000009f0       0x50 ..\obj\syscalls.o
 .debug_ranges  0x00000a40       0x30 ..\obj\yume_infrared_proximity.o
 .debug_ranges  0x00000a70       0x40 ..\obj\yume_pid_controller.o
 .debug_ranges  0x00000ab0       0x60 ..\obj\yume_user_interface.o
 .debug_ranges  0x00000b10      0x110 ..\obj\stm32f4xx_i2c.o
 .debug_ranges  0x00000c20      0x110 ..\obj\yume_hexapod_cmd.o
 .debug_ranges  0x00000d30       0x30 ..\obj\yume_dynamixel_xl_320.o
 .debug_ranges  0x00000d60       0x30 ..\obj\yume_flame_sensor.o
 .debug_ranges  0x00000d90       0x30 ..\obj\misc.o
 .debug_ranges  0x00000dc0       0x38 ..\obj\yume_ping_receiver.o
 .debug_ranges  0x00000df8      0x4a0 ..\obj\yume2016_algorithm.o
 .debug_ranges  0x00001298       0x28 ..\obj\yume_UV-TRON.o
 .debug_ranges  0x000012c0      0x2e8 ..\obj\stm32f4xx_tim.o

.debug_line     0x00000000    0x10d5e
 .debug_line    0x00000000      0x478 ..\obj\yume_bumper.o
 .debug_line    0x00000478      0x565 ..\obj\yume_lcd.o
 .debug_line    0x000009dd      0x5ae ..\obj\yume_mpu6050.o
 .debug_line    0x00000f8b      0x460 ..\obj\yume_rotary_switch.o
 .debug_line    0x000013eb      0x7a5 ..\obj\yume_tcs3200_receiver.o
 .debug_line    0x00001b90      0x520 ..\obj\stm32f4xx_usart.o
 .debug_line    0x000020b0      0x497 ..\obj\yume_articulated_manipulator.o
 .debug_line    0x00002547      0x545 ..\obj\yume_gy_85.o
 .debug_line    0x00002a8c      0x67f ..\obj\yume_usart_comm.o
 .debug_line    0x0000310b       0xcd ..\obj\startup_stm32f4xx.o
 .debug_line    0x000031d8      0x437 ..\obj\yume_extinguisher.o
 .debug_line    0x0000360f      0x50a ..\obj\main.o
 .debug_line    0x00003b19      0x618 ..\obj\stm32f4xx_rcc.o
 .debug_line    0x00004131      0x9df ..\obj\yume_cmps11.o
 .debug_line    0x00004b10      0x450 ..\obj\yume_bldc_fan.o
 .debug_line    0x00004f60      0x3d5 ..\obj\yume_i2c_lcd.o
 .debug_line    0x00005335      0x5d0 ..\obj\stm32f4xx_adc.o
 .debug_line    0x00005905      0x3bf ..\obj\yume_utilities.o
 .debug_line    0x00005cc4      0x2ca ..\obj\yume_systick_delay.o
 .debug_line    0x00005f8e      0x83a ..\obj\yume_tpa_servo.o
 .debug_line    0x000067c8      0x3ba ..\obj\yume_sound_activation.o
 .debug_line    0x00006b82      0x3bb ..\obj\stm32f4xx_gpio.o
 .debug_line    0x00006f3d      0x285 ..\obj\system_stm32f4xx.o
 .debug_line    0x000071c2      0x1cf ..\obj\syscalls.o
 .debug_line    0x00007391        0x0 ..\obj\yume_tcs3200.o
 .debug_line    0x00007391        0x0 ..\obj\yume_algorithm.o
 .debug_line    0x00007391      0x3a6 ..\obj\yume_global_var.o
 .debug_line    0x00007737      0x40b ..\obj\yume_infrared_proximity.o
 .debug_line    0x00007b42      0x665 ..\obj\yume_pid_controller.o
 .debug_line    0x000081a7      0x4ba ..\obj\yume_user_interface.o
 .debug_line    0x00008661      0x558 ..\obj\stm32f4xx_i2c.o
 .debug_line    0x00008bb9     0x1489 ..\obj\yume_hexapod_cmd.o
 .debug_line    0x0000a042      0x457 ..\obj\yume_dynamixel_xl_320.o
 .debug_line    0x0000a499      0x58c ..\obj\yume_flame_sensor.o
 .debug_line    0x0000aa25      0x2c1 ..\obj\misc.o
 .debug_line    0x0000ace6      0x4c0 ..\obj\yume_ping_receiver.o
 .debug_line    0x0000b1a6     0x4975 ..\obj\yume2016_algorithm.o
 .debug_line    0x0000fb1b      0x3bd ..\obj\yume_UV-TRON.o
 .debug_line    0x0000fed8      0x391 ..\obj\yume_interrupt_monitor.o
 .debug_line    0x00010269      0xaf5 ..\obj\stm32f4xx_tim.o

.debug_str      0x00000000     0x7218
 .debug_str     0x00000000      0x9b8 ..\obj\yume_bumper.o
                                0xa38 (size before relaxing)
 .debug_str     0x000009b8      0x1ed ..\obj\yume_lcd.o
                                0x4a5 (size before relaxing)
 .debug_str     0x00000ba5      0x4b9 ..\obj\yume_mpu6050.o
                                0xe6f (size before relaxing)
 .debug_str     0x0000105e      0x116 ..\obj\yume_rotary_switch.o
                                0xac6 (size before relaxing)
 .debug_str     0x00001174      0x471 ..\obj\yume_tcs3200_receiver.o
                                0xe4e (size before relaxing)
 .debug_str     0x000015e5      0x448 ..\obj\stm32f4xx_usart.o
                                0x654 (size before relaxing)
 .debug_str     0x00001a2d      0x6c9 ..\obj\yume_articulated_manipulator.o
                               0x108b (size before relaxing)
 .debug_str     0x000020f6      0x3c8 ..\obj\yume_gy_85.o
                                0xe03 (size before relaxing)
 .debug_str     0x000024be      0x254 ..\obj\yume_usart_comm.o
                               0x11f9 (size before relaxing)
 .debug_str     0x00002712       0xdb ..\obj\startup_stm32f4xx.o
                                0x143 (size before relaxing)
 .debug_str     0x000027ed       0xb3 ..\obj\yume_extinguisher.o
                                0xa17 (size before relaxing)
 .debug_str     0x000028a0      0x15e ..\obj\main.o
                                0xb4b (size before relaxing)
 .debug_str     0x000029fe      0x606 ..\obj\stm32f4xx_rcc.o
                                0x815 (size before relaxing)
 .debug_str     0x00003004      0x37f ..\obj\yume_cmps11.o
                                0xe1c (size before relaxing)
 .debug_str     0x00003383       0xcd ..\obj\yume_bldc_fan.o
                                0xb04 (size before relaxing)
 .debug_str     0x00003450       0x8f ..\obj\yume_i2c_lcd.o
                                0xa62 (size before relaxing)
 .debug_str     0x000034df      0x522 ..\obj\stm32f4xx_adc.o
                                0x7c9 (size before relaxing)
 .debug_str     0x00003a01       0x8e ..\obj\yume_utilities.o
                                0x9ac (size before relaxing)
 .debug_str     0x00003a8f      0x1b2 ..\obj\yume_systick_delay.o
                                0x7e2 (size before relaxing)
 .debug_str     0x00003c41      0x1e9 ..\obj\yume_tpa_servo.o
                                0xcc0 (size before relaxing)
 .debug_str     0x00003e2a       0xbd ..\obj\yume_sound_activation.o
                                0xa1f (size before relaxing)
 .debug_str     0x00003ee7      0x1bf ..\obj\stm32f4xx_gpio.o
                                0x468 (size before relaxing)
 .debug_str     0x000040a6       0xdf ..\obj\system_stm32f4xx.o
                                0x36f (size before relaxing)
 .debug_str     0x00004185      0x18e ..\obj\syscalls.o
                                0x306 (size before relaxing)
 .debug_str     0x00004313      0xbe7 ..\obj\yume_global_var.o
                               0x1aac (size before relaxing)
 .debug_str     0x00004efa       0xbc ..\obj\yume_infrared_proximity.o
                                0xa1c (size before relaxing)
 .debug_str     0x00004fb6       0xda ..\obj\yume_pid_controller.o
                                0xa45 (size before relaxing)
 .debug_str     0x00005090      0x11c ..\obj\yume_user_interface.o
                                0xe2f (size before relaxing)
 .debug_str     0x000051ac      0x362 ..\obj\stm32f4xx_i2c.o
                                0x62a (size before relaxing)
 .debug_str     0x0000550e      0x3a2 ..\obj\yume_hexapod_cmd.o
                               0x1453 (size before relaxing)
 .debug_str     0x000058b0      0x108 ..\obj\yume_dynamixel_xl_320.o
                                0xfd2 (size before relaxing)
 .debug_str     0x000059b8       0xb3 ..\obj\yume_flame_sensor.o
                                0xb03 (size before relaxing)
 .debug_str     0x00005a6b      0x137 ..\obj\misc.o
                                0x39e (size before relaxing)
 .debug_str     0x00005ba2       0xd2 ..\obj\yume_ping_receiver.o
                                0xfd7 (size before relaxing)
 .debug_str     0x00005c74      0xa58 ..\obj\yume2016_algorithm.o
                               0x1b41 (size before relaxing)
 .debug_str     0x000066cc       0xaa ..\obj\yume_UV-TRON.o
                                0xa12 (size before relaxing)
 .debug_str     0x00006776       0x79 ..\obj\yume_interrupt_monitor.o
                                0x997 (size before relaxing)
 .debug_str     0x000067ef      0xa29 ..\obj\stm32f4xx_tim.o
                                0xd95 (size before relaxing)

.comment        0x00000000       0x70
 .comment       0x00000000       0x70 ..\obj\yume_bumper.o
                                 0x71 (size before relaxing)
 .comment       0x00000000       0x71 ..\obj\yume_lcd.o
 .comment       0x00000000       0x71 ..\obj\yume_mpu6050.o
 .comment       0x00000000       0x71 ..\obj\yume_rotary_switch.o
 .comment       0x00000000       0x71 ..\obj\yume_tcs3200_receiver.o
 .comment       0x00000000       0x71 ..\obj\stm32f4xx_usart.o
 .comment       0x00000000       0x71 ..\obj\yume_articulated_manipulator.o
 .comment       0x00000000       0x71 ..\obj\yume_gy_85.o
 .comment       0x00000000       0x71 ..\obj\yume_usart_comm.o
 .comment       0x00000000       0x71 ..\obj\startup_stm32f4xx.o
 .comment       0x00000000       0x71 ..\obj\yume_extinguisher.o
 .comment       0x00000000       0x71 ..\obj\main.o
 .comment       0x00000000       0x71 ..\obj\stm32f4xx_rcc.o
 .comment       0x00000000       0x71 ..\obj\yume_cmps11.o
 .comment       0x00000000       0x71 ..\obj\yume_bldc_fan.o
 .comment       0x00000000       0x71 ..\obj\yume_i2c_lcd.o
 .comment       0x00000000       0x71 ..\obj\stm32f4xx_adc.o
 .comment       0x00000000       0x71 ..\obj\yume_utilities.o
 .comment       0x00000000       0x71 ..\obj\yume_systick_delay.o
 .comment       0x00000000       0x71 ..\obj\yume_tpa_servo.o
 .comment       0x00000000       0x71 ..\obj\yume_sound_activation.o
 .comment       0x00000000       0x71 ..\obj\stm32f4xx_gpio.o
 .comment       0x00000000       0x71 ..\obj\system_stm32f4xx.o
 .comment       0x00000000       0x71 ..\obj\syscalls.o
 .comment       0x00000000       0x71 ..\obj\yume_tcs3200.o
 .comment       0x00000000       0x71 ..\obj\yume_algorithm.o
 .comment       0x00000000       0x71 ..\obj\yume_global_var.o
 .comment       0x00000000       0x71 ..\obj\yume_infrared_proximity.o
 .comment       0x00000000       0x71 ..\obj\yume_pid_controller.o
 .comment       0x00000000       0x71 ..\obj\yume_user_interface.o
 .comment       0x00000000       0x71 ..\obj\stm32f4xx_i2c.o
 .comment       0x00000000       0x71 ..\obj\yume_hexapod_cmd.o
 .comment       0x00000000       0x71 ..\obj\yume_dynamixel_xl_320.o
 .comment       0x00000000       0x71 ..\obj\yume_flame_sensor.o
 .comment       0x00000000       0x71 ..\obj\misc.o
 .comment       0x00000000       0x71 ..\obj\yume_ping_receiver.o
 .comment       0x00000000       0x71 ..\obj\yume2016_algorithm.o
 .comment       0x00000000       0x71 ..\obj\yume_UV-TRON.o
 .comment       0x00000000       0x71 ..\obj\yume_interrupt_monitor.o
 .comment       0x00000000       0x71 ..\obj\stm32f4xx_tim.o

.ARM.attributes
                0x00000000       0x3b
 .ARM.attributes
                0x00000000       0x3b ..\obj\yume_bumper.o
 .ARM.attributes
                0x0000003b       0x3b ..\obj\yume_lcd.o
 .ARM.attributes
                0x00000076       0x3b ..\obj\yume_mpu6050.o
 .ARM.attributes
                0x000000b1       0x3b ..\obj\yume_rotary_switch.o
 .ARM.attributes
                0x000000ec       0x3b ..\obj\yume_tcs3200_receiver.o
 .ARM.attributes
                0x00000127       0x3b ..\obj\stm32f4xx_usart.o
 .ARM.attributes
                0x00000162       0x3b ..\obj\yume_articulated_manipulator.o
 .ARM.attributes
                0x0000019d       0x3b ..\obj\yume_gy_85.o
 .ARM.attributes
                0x000001d8       0x3b ..\obj\yume_usart_comm.o
 .ARM.attributes
                0x00000213       0x3b ..\obj\startup_stm32f4xx.o
 .ARM.attributes
                0x0000024e       0x3b ..\obj\yume_extinguisher.o
 .ARM.attributes
                0x00000289       0x3b ..\obj\main.o
 .ARM.attributes
                0x000002c4       0x3b ..\obj\stm32f4xx_rcc.o
 .ARM.attributes
                0x000002ff       0x3b ..\obj\yume_cmps11.o
 .ARM.attributes
                0x0000033a       0x3b ..\obj\yume_bldc_fan.o
 .ARM.attributes
                0x00000375       0x3b ..\obj\yume_i2c_lcd.o
 .ARM.attributes
                0x000003b0       0x3b ..\obj\stm32f4xx_adc.o
 .ARM.attributes
                0x000003eb       0x3b ..\obj\yume_utilities.o
 .ARM.attributes
                0x00000426       0x3b ..\obj\yume_systick_delay.o
 .ARM.attributes
                0x00000461       0x3b ..\obj\yume_tpa_servo.o
 .ARM.attributes
                0x0000049c       0x3b ..\obj\yume_sound_activation.o
 .ARM.attributes
                0x000004d7       0x3b ..\obj\stm32f4xx_gpio.o
 .ARM.attributes
                0x00000512       0x3b ..\obj\system_stm32f4xx.o
 .ARM.attributes
                0x0000054d       0x3b ..\obj\syscalls.o
 .ARM.attributes
                0x00000588       0x3b ..\obj\yume_tcs3200.o
 .ARM.attributes
                0x000005c3       0x3b ..\obj\yume_algorithm.o
 .ARM.attributes
                0x000005fe       0x3b ..\obj\yume_global_var.o
 .ARM.attributes
                0x00000639       0x3b ..\obj\yume_infrared_proximity.o
 .ARM.attributes
                0x00000674       0x3b ..\obj\yume_pid_controller.o
 .ARM.attributes
                0x000006af       0x3b ..\obj\yume_user_interface.o
 .ARM.attributes
                0x000006ea       0x3b ..\obj\stm32f4xx_i2c.o
 .ARM.attributes
                0x00000725       0x3b ..\obj\yume_hexapod_cmd.o
 .ARM.attributes
                0x00000760       0x3b ..\obj\yume_dynamixel_xl_320.o
 .ARM.attributes
                0x0000079b       0x3b ..\obj\yume_flame_sensor.o
 .ARM.attributes
                0x000007d6       0x3b ..\obj\misc.o
 .ARM.attributes
                0x00000811       0x3b ..\obj\yume_ping_receiver.o
 .ARM.attributes
                0x0000084c       0x3b ..\obj\yume2016_algorithm.o
 .ARM.attributes
                0x00000887       0x3b ..\obj\yume_UV-TRON.o
 .ARM.attributes
                0x000008c2       0x3b ..\obj\yume_interrupt_monitor.o
 .ARM.attributes
                0x000008fd       0x3b ..\obj\stm32f4xx_tim.o
 .ARM.attributes
                0x00000938       0x36 C:\Softwares\CooCox\GNU Tools ARM Embedded\4.6 2012q2\arm-none-eabi\lib\armv7e-m\fpu\libm.a(lib_a-s_atan.o)
 .ARM.attributes
                0x0000096e       0x36 C:\Softwares\CooCox\GNU Tools ARM Embedded\4.6 2012q2\arm-none-eabi\lib\armv7e-m\fpu\libm.a(lib_a-s_cos.o)
 .ARM.attributes
                0x000009a4       0x36 C:\Softwares\CooCox\GNU Tools ARM Embedded\4.6 2012q2\arm-none-eabi\lib\armv7e-m\fpu\libm.a(lib_a-s_fabs.o)
 .ARM.attributes
                0x000009da       0x36 C:\Softwares\CooCox\GNU Tools ARM Embedded\4.6 2012q2\arm-none-eabi\lib\armv7e-m\fpu\libm.a(lib_a-s_fmax.o)
 .ARM.attributes
                0x00000a10       0x36 C:\Softwares\CooCox\GNU Tools ARM Embedded\4.6 2012q2\arm-none-eabi\lib\armv7e-m\fpu\libm.a(lib_a-s_fpclassify.o)
 .ARM.attributes
                0x00000a46       0x36 C:\Softwares\CooCox\GNU Tools ARM Embedded\4.6 2012q2\arm-none-eabi\lib\armv7e-m\fpu\libm.a(lib_a-s_sin.o)
 .ARM.attributes
                0x00000a7c       0x36 C:\Softwares\CooCox\GNU Tools ARM Embedded\4.6 2012q2\arm-none-eabi\lib\armv7e-m\fpu\libm.a(lib_a-w_acos.o)
 .ARM.attributes
                0x00000ab2       0x36 C:\Softwares\CooCox\GNU Tools ARM Embedded\4.6 2012q2\arm-none-eabi\lib\armv7e-m\fpu\libm.a(lib_a-w_atan2.o)
 .ARM.attributes
                0x00000ae8       0x36 C:\Softwares\CooCox\GNU Tools ARM Embedded\4.6 2012q2\arm-none-eabi\lib\armv7e-m\fpu\libm.a(lib_a-w_sqrt.o)
 .ARM.attributes
                0x00000b1e       0x36 C:\Softwares\CooCox\GNU Tools ARM Embedded\4.6 2012q2\arm-none-eabi\lib\armv7e-m\fpu\libm.a(lib_a-e_acos.o)
 .ARM.attributes
                0x00000b54       0x36 C:\Softwares\CooCox\GNU Tools ARM Embedded\4.6 2012q2\arm-none-eabi\lib\armv7e-m\fpu\libm.a(lib_a-e_atan2.o)
 .ARM.attributes
                0x00000b8a       0x36 C:\Softwares\CooCox\GNU Tools ARM Embedded\4.6 2012q2\arm-none-eabi\lib\armv7e-m\fpu\libm.a(lib_a-e_rem_pio2.o)
 .ARM.attributes
                0x00000bc0       0x36 C:\Softwares\CooCox\GNU Tools ARM Embedded\4.6 2012q2\arm-none-eabi\lib\armv7e-m\fpu\libm.a(lib_a-e_sqrt.o)
 .ARM.attributes
                0x00000bf6       0x36 C:\Softwares\CooCox\GNU Tools ARM Embedded\4.6 2012q2\arm-none-eabi\lib\armv7e-m\fpu\libm.a(lib_a-k_cos.o)
 .ARM.attributes
                0x00000c2c       0x36 C:\Softwares\CooCox\GNU Tools ARM Embedded\4.6 2012q2\arm-none-eabi\lib\armv7e-m\fpu\libm.a(lib_a-k_rem_pio2.o)
 .ARM.attributes
                0x00000c62       0x36 C:\Softwares\CooCox\GNU Tools ARM Embedded\4.6 2012q2\arm-none-eabi\lib\armv7e-m\fpu\libm.a(lib_a-k_sin.o)
 .ARM.attributes
                0x00000c98       0x36 C:\Softwares\CooCox\GNU Tools ARM Embedded\4.6 2012q2\arm-none-eabi\lib\armv7e-m\fpu\libm.a(lib_a-s_floor.o)
 .ARM.attributes
                0x00000cce       0x36 C:\Softwares\CooCox\GNU Tools ARM Embedded\4.6 2012q2\arm-none-eabi\lib\armv7e-m\fpu\libm.a(lib_a-s_lib_ver.o)
 .ARM.attributes
                0x00000d04       0x36 C:\Softwares\CooCox\GNU Tools ARM Embedded\4.6 2012q2\arm-none-eabi\lib\armv7e-m\fpu\libm.a(lib_a-s_matherr.o)
 .ARM.attributes
                0x00000d3a       0x36 C:\Softwares\CooCox\GNU Tools ARM Embedded\4.6 2012q2\arm-none-eabi\lib\armv7e-m\fpu\libm.a(lib_a-s_nan.o)
 .ARM.attributes
                0x00000d70       0x36 C:\Softwares\CooCox\GNU Tools ARM Embedded\4.6 2012q2\arm-none-eabi\lib\armv7e-m\fpu\libm.a(lib_a-s_scalbn.o)
 .ARM.attributes
                0x00000da6       0x36 C:\Softwares\CooCox\GNU Tools ARM Embedded\4.6 2012q2\arm-none-eabi\lib\armv7e-m\fpu\libm.a(lib_a-s_copysign.o)
 .ARM.attributes
                0x00000ddc       0x24 c:/softwares/coocox/gnu tools arm embedded/4.6 2012q2/bin/../lib/gcc/arm-none-eabi/4.6.2/armv7e-m/fpu\libgcc.a(_arm_addsubdf3.o)
 .ARM.attributes
                0x00000e00       0x24 c:/softwares/coocox/gnu tools arm embedded/4.6 2012q2/bin/../lib/gcc/arm-none-eabi/4.6.2/armv7e-m/fpu\libgcc.a(_arm_muldivdf3.o)
 .ARM.attributes
                0x00000e24       0x24 c:/softwares/coocox/gnu tools arm embedded/4.6 2012q2/bin/../lib/gcc/arm-none-eabi/4.6.2/armv7e-m/fpu\libgcc.a(_arm_cmpdf2.o)
 .ARM.attributes
                0x00000e48       0x24 c:/softwares/coocox/gnu tools arm embedded/4.6 2012q2/bin/../lib/gcc/arm-none-eabi/4.6.2/armv7e-m/fpu\libgcc.a(_arm_fixdfsi.o)
 .ARM.attributes
                0x00000e6c       0x24 c:/softwares/coocox/gnu tools arm embedded/4.6 2012q2/bin/../lib/gcc/arm-none-eabi/4.6.2/armv7e-m/fpu\libgcc.a(_arm_truncdfsf2.o)
 .ARM.attributes
                0x00000e90       0x36 C:\Softwares\CooCox\GNU Tools ARM Embedded\4.6 2012q2\arm-none-eabi\lib\armv7e-m\fpu\libc.a(lib_a-errno.o)
 .ARM.attributes
                0x00000ec6       0x36 C:\Softwares\CooCox\GNU Tools ARM Embedded\4.6 2012q2\arm-none-eabi\lib\armv7e-m\fpu\libc.a(lib_a-impure.o)
 .ARM.attributes
                0x00000efc       0x36 C:\Softwares\CooCox\GNU Tools ARM Embedded\4.6 2012q2\arm-none-eabi\lib\armv7e-m\fpu\libc.a(lib_a-memcpy.o)
 .ARM.attributes
                0x00000f32       0x36 C:\Softwares\CooCox\GNU Tools ARM Embedded\4.6 2012q2\arm-none-eabi\lib\armv7e-m\fpu\libc.a(lib_a-sprintf.o)
 .ARM.attributes
                0x00000f68       0x36 C:\Softwares\CooCox\GNU Tools ARM Embedded\4.6 2012q2\arm-none-eabi\lib\armv7e-m\fpu\libc.a(lib_a-strlen.o)
 .ARM.attributes
                0x00000f9e       0x36 C:\Softwares\CooCox\GNU Tools ARM Embedded\4.6 2012q2\arm-none-eabi\lib\armv7e-m\fpu\libc.a(lib_a-svfprintf.o)
 .ARM.attributes
                0x00000fd4       0x36 C:\Softwares\CooCox\GNU Tools ARM Embedded\4.6 2012q2\arm-none-eabi\lib\armv7e-m\fpu\libc.a(lib_a-dtoa.o)
 .ARM.attributes
                0x0000100a       0x36 C:\Softwares\CooCox\GNU Tools ARM Embedded\4.6 2012q2\arm-none-eabi\lib\armv7e-m\fpu\libc.a(lib_a-locale.o)
 .ARM.attributes
                0x00001040       0x36 C:\Softwares\CooCox\GNU Tools ARM Embedded\4.6 2012q2\arm-none-eabi\lib\armv7e-m\fpu\libc.a(lib_a-mallocr.o)
 .ARM.attributes
                0x00001076       0x36 C:\Softwares\CooCox\GNU Tools ARM Embedded\4.6 2012q2\arm-none-eabi\lib\armv7e-m\fpu\libc.a(lib_a-memchr.o)
 .ARM.attributes
                0x000010ac       0x36 C:\Softwares\CooCox\GNU Tools ARM Embedded\4.6 2012q2\arm-none-eabi\lib\armv7e-m\fpu\libc.a(lib_a-mlock.o)
 .ARM.attributes
                0x000010e2       0x36 C:\Softwares\CooCox\GNU Tools ARM Embedded\4.6 2012q2\arm-none-eabi\lib\armv7e-m\fpu\libc.a(lib_a-mprec.o)
 .ARM.attributes
                0x00001118       0x36 C:\Softwares\CooCox\GNU Tools ARM Embedded\4.6 2012q2\arm-none-eabi\lib\armv7e-m\fpu\libc.a(lib_a-sbrkr.o)
 .ARM.attributes
                0x0000114e       0x36 C:\Softwares\CooCox\GNU Tools ARM Embedded\4.6 2012q2\arm-none-eabi\lib\armv7e-m\fpu\libc.a(lib_a-strcmp.o)
 .ARM.attributes
                0x00001184       0x36 C:\Softwares\CooCox\GNU Tools ARM Embedded\4.6 2012q2\arm-none-eabi\lib\armv7e-m\fpu\libc.a(lib_a-svfiprintf.o)
 .ARM.attributes
                0x000011ba       0x36 C:\Softwares\CooCox\GNU Tools ARM Embedded\4.6 2012q2\arm-none-eabi\lib\armv7e-m\fpu\libc.a(lib_a-callocr.o)
 .ARM.attributes
                0x000011f0       0x36 C:\Softwares\CooCox\GNU Tools ARM Embedded\4.6 2012q2\arm-none-eabi\lib\armv7e-m\fpu\libc.a(lib_a-freer.o)
 .ARM.attributes
                0x00001226       0x36 C:\Softwares\CooCox\GNU Tools ARM Embedded\4.6 2012q2\arm-none-eabi\lib\armv7e-m\fpu\libc.a(lib_a-memmove.o)
 .ARM.attributes
                0x0000125c       0x36 C:\Softwares\CooCox\GNU Tools ARM Embedded\4.6 2012q2\arm-none-eabi\lib\armv7e-m\fpu\libc.a(lib_a-memset.o)
 .ARM.attributes
                0x00001292       0x36 C:\Softwares\CooCox\GNU Tools ARM Embedded\4.6 2012q2\arm-none-eabi\lib\armv7e-m\fpu\libc.a(lib_a-reallocr.o)
 .ARM.attributes
                0x000012c8       0x36 C:\Softwares\CooCox\GNU Tools ARM Embedded\4.6 2012q2\arm-none-eabi\lib\armv7e-m\fpu\libc.a(lib_a-reent.o)
 .ARM.attributes
                0x000012fe       0x24 c:/softwares/coocox/gnu tools arm embedded/4.6 2012q2/bin/../lib/gcc/arm-none-eabi/4.6.2/armv7e-m/fpu\libgcc.a(_aeabi_uldivmod.o)
 .ARM.attributes
                0x00001322       0x36 c:/softwares/coocox/gnu tools arm embedded/4.6 2012q2/bin/../lib/gcc/arm-none-eabi/4.6.2/armv7e-m/fpu\libgcc.a(bpabi.o)
 .ARM.attributes
                0x00001358       0x36 c:/softwares/coocox/gnu tools arm embedded/4.6 2012q2/bin/../lib/gcc/arm-none-eabi/4.6.2/armv7e-m/fpu\libgcc.a(unwind-arm.o)
 .ARM.attributes
                0x0000138e       0x24 c:/softwares/coocox/gnu tools arm embedded/4.6 2012q2/bin/../lib/gcc/arm-none-eabi/4.6.2/armv7e-m/fpu\libgcc.a(libunwind.o)
 .ARM.attributes
                0x000013b2       0x36 c:/softwares/coocox/gnu tools arm embedded/4.6 2012q2/bin/../lib/gcc/arm-none-eabi/4.6.2/armv7e-m/fpu\libgcc.a(pr-support.o)
 .ARM.attributes
                0x000013e8       0x24 c:/softwares/coocox/gnu tools arm embedded/4.6 2012q2/bin/../lib/gcc/arm-none-eabi/4.6.2/armv7e-m/fpu\libgcc.a(_dvmd_tls.o)
 .ARM.attributes
                0x0000140c       0x36 c:/softwares/coocox/gnu tools arm embedded/4.6 2012q2/bin/../lib/gcc/arm-none-eabi/4.6.2/armv7e-m/fpu\libgcc.a(_divdi3.o)
 .ARM.attributes
                0x00001442       0x36 c:/softwares/coocox/gnu tools arm embedded/4.6 2012q2/bin/../lib/gcc/arm-none-eabi/4.6.2/armv7e-m/fpu\libgcc.a(_udivdi3.o)

.debug_frame    0x00000000     0x5c58
 .debug_frame   0x00000000       0x88 ..\obj\yume_bumper.o
 .debug_frame   0x00000088      0x36c ..\obj\yume_lcd.o
 .debug_frame   0x000003f4      0x148 ..\obj\yume_mpu6050.o
 .debug_frame   0x0000053c       0x6c ..\obj\yume_rotary_switch.o
 .debug_frame   0x000005a8      0x204 ..\obj\yume_tcs3200_receiver.o
 .debug_frame   0x000007ac      0x344 ..\obj\stm32f4xx_usart.o
 .debug_frame   0x00000af0       0xbc ..\obj\yume_articulated_manipulator.o
 .debug_frame   0x00000bac      0x14c ..\obj\yume_gy_85.o
 .debug_frame   0x00000cf8      0x20c ..\obj\yume_usart_comm.o
 .debug_frame   0x00000f04       0x48 ..\obj\startup_stm32f4xx.o
 .debug_frame   0x00000f4c       0x84 ..\obj\yume_extinguisher.o
 .debug_frame   0x00000fd0       0x54 ..\obj\main.o
 .debug_frame   0x00001024      0x4d8 ..\obj\stm32f4xx_rcc.o
 .debug_frame   0x000014fc      0x37c ..\obj\yume_cmps11.o
 .debug_frame   0x00001878       0xb4 ..\obj\yume_bldc_fan.o
 .debug_frame   0x0000192c       0x48 ..\obj\yume_i2c_lcd.o
 .debug_frame   0x00001974      0x434 ..\obj\stm32f4xx_adc.o
 .debug_frame   0x00001da8       0x34 ..\obj\yume_utilities.o
 .debug_frame   0x00001ddc       0xf0 ..\obj\yume_systick_delay.o
 .debug_frame   0x00001ecc      0x234 ..\obj\yume_tpa_servo.o
 .debug_frame   0x00002100       0x4c ..\obj\yume_sound_activation.o
 .debug_frame   0x0000214c      0x19c ..\obj\stm32f4xx_gpio.o
 .debug_frame   0x000022e8       0x64 ..\obj\system_stm32f4xx.o
 .debug_frame   0x0000234c      0x108 ..\obj\syscalls.o
 .debug_frame   0x00002454       0xa0 ..\obj\yume_infrared_proximity.o
 .debug_frame   0x000024f4       0xcc ..\obj\yume_pid_controller.o
 .debug_frame   0x000025c0      0x14c ..\obj\yume_user_interface.o
 .debug_frame   0x0000270c      0x3b4 ..\obj\stm32f4xx_i2c.o
 .debug_frame   0x00002ac0      0x408 ..\obj\yume_hexapod_cmd.o
 .debug_frame   0x00002ec8       0xb0 ..\obj\yume_dynamixel_xl_320.o
 .debug_frame   0x00002f78       0xac ..\obj\yume_flame_sensor.o
 .debug_frame   0x00003024       0x9c ..\obj\misc.o
 .debug_frame   0x000030c0       0xcc ..\obj\yume_ping_receiver.o
 .debug_frame   0x0000318c     0x112c ..\obj\yume2016_algorithm.o
 .debug_frame   0x000042b8       0x80 ..\obj\yume_UV-TRON.o
 .debug_frame   0x00004338      0xa3c ..\obj\stm32f4xx_tim.o
 .debug_frame   0x00004d74       0x38 C:\Softwares\CooCox\GNU Tools ARM Embedded\4.6 2012q2\arm-none-eabi\lib\armv7e-m\fpu\libm.a(lib_a-s_atan.o)
 .debug_frame   0x00004dac       0x28 C:\Softwares\CooCox\GNU Tools ARM Embedded\4.6 2012q2\arm-none-eabi\lib\armv7e-m\fpu\libm.a(lib_a-s_cos.o)
 .debug_frame   0x00004dd4       0x20 C:\Softwares\CooCox\GNU Tools ARM Embedded\4.6 2012q2\arm-none-eabi\lib\armv7e-m\fpu\libm.a(lib_a-s_fabs.o)
 .debug_frame   0x00004df4       0x30 C:\Softwares\CooCox\GNU Tools ARM Embedded\4.6 2012q2\arm-none-eabi\lib\armv7e-m\fpu\libm.a(lib_a-s_fmax.o)
 .debug_frame   0x00004e24       0x20 C:\Softwares\CooCox\GNU Tools ARM Embedded\4.6 2012q2\arm-none-eabi\lib\armv7e-m\fpu\libm.a(lib_a-s_fpclassify.o)
 .debug_frame   0x00004e44       0x28 C:\Softwares\CooCox\GNU Tools ARM Embedded\4.6 2012q2\arm-none-eabi\lib\armv7e-m\fpu\libm.a(lib_a-s_sin.o)
 .debug_frame   0x00004e6c       0x34 C:\Softwares\CooCox\GNU Tools ARM Embedded\4.6 2012q2\arm-none-eabi\lib\armv7e-m\fpu\libm.a(lib_a-w_acos.o)
 .debug_frame   0x00004ea0       0x20 C:\Softwares\CooCox\GNU Tools ARM Embedded\4.6 2012q2\arm-none-eabi\lib\armv7e-m\fpu\libm.a(lib_a-w_atan2.o)
 .debug_frame   0x00004ec0       0x34 C:\Softwares\CooCox\GNU Tools ARM Embedded\4.6 2012q2\arm-none-eabi\lib\armv7e-m\fpu\libm.a(lib_a-w_sqrt.o)
 .debug_frame   0x00004ef4       0x40 C:\Softwares\CooCox\GNU Tools ARM Embedded\4.6 2012q2\arm-none-eabi\lib\armv7e-m\fpu\libm.a(lib_a-e_acos.o)
 .debug_frame   0x00004f34       0x30 C:\Softwares\CooCox\GNU Tools ARM Embedded\4.6 2012q2\arm-none-eabi\lib\armv7e-m\fpu\libm.a(lib_a-e_atan2.o)
 .debug_frame   0x00004f64       0x38 C:\Softwares\CooCox\GNU Tools ARM Embedded\4.6 2012q2\arm-none-eabi\lib\armv7e-m\fpu\libm.a(lib_a-e_rem_pio2.o)
 .debug_frame   0x00004f9c       0x3c C:\Softwares\CooCox\GNU Tools ARM Embedded\4.6 2012q2\arm-none-eabi\lib\armv7e-m\fpu\libm.a(lib_a-e_sqrt.o)
 .debug_frame   0x00004fd8       0x40 C:\Softwares\CooCox\GNU Tools ARM Embedded\4.6 2012q2\arm-none-eabi\lib\armv7e-m\fpu\libm.a(lib_a-k_cos.o)
 .debug_frame   0x00005018       0x3c C:\Softwares\CooCox\GNU Tools ARM Embedded\4.6 2012q2\arm-none-eabi\lib\armv7e-m\fpu\libm.a(lib_a-k_rem_pio2.o)
 .debug_frame   0x00005054       0x40 C:\Softwares\CooCox\GNU Tools ARM Embedded\4.6 2012q2\arm-none-eabi\lib\armv7e-m\fpu\libm.a(lib_a-k_sin.o)
 .debug_frame   0x00005094       0x34 C:\Softwares\CooCox\GNU Tools ARM Embedded\4.6 2012q2\arm-none-eabi\lib\armv7e-m\fpu\libm.a(lib_a-s_floor.o)
 .debug_frame   0x000050c8       0x20 C:\Softwares\CooCox\GNU Tools ARM Embedded\4.6 2012q2\arm-none-eabi\lib\armv7e-m\fpu\libm.a(lib_a-s_matherr.o)
 .debug_frame   0x000050e8       0x20 C:\Softwares\CooCox\GNU Tools ARM Embedded\4.6 2012q2\arm-none-eabi\lib\armv7e-m\fpu\libm.a(lib_a-s_nan.o)
 .debug_frame   0x00005108       0x28 C:\Softwares\CooCox\GNU Tools ARM Embedded\4.6 2012q2\arm-none-eabi\lib\armv7e-m\fpu\libm.a(lib_a-s_scalbn.o)
 .debug_frame   0x00005130       0x28 C:\Softwares\CooCox\GNU Tools ARM Embedded\4.6 2012q2\arm-none-eabi\lib\armv7e-m\fpu\libm.a(lib_a-s_copysign.o)
 .debug_frame   0x00005158       0x20 C:\Softwares\CooCox\GNU Tools ARM Embedded\4.6 2012q2\arm-none-eabi\lib\armv7e-m\fpu\libc.a(lib_a-errno.o)
 .debug_frame   0x00005178       0x2c C:\Softwares\CooCox\GNU Tools ARM Embedded\4.6 2012q2\arm-none-eabi\lib\armv7e-m\fpu\libc.a(lib_a-memcpy.o)
 .debug_frame   0x000051a4       0x60 C:\Softwares\CooCox\GNU Tools ARM Embedded\4.6 2012q2\arm-none-eabi\lib\armv7e-m\fpu\libc.a(lib_a-sprintf.o)
 .debug_frame   0x00005204       0x20 C:\Softwares\CooCox\GNU Tools ARM Embedded\4.6 2012q2\arm-none-eabi\lib\armv7e-m\fpu\libc.a(lib_a-strlen.o)
 .debug_frame   0x00005224       0x3c C:\Softwares\CooCox\GNU Tools ARM Embedded\4.6 2012q2\arm-none-eabi\lib\armv7e-m\fpu\libc.a(lib_a-svfprintf.o)
 .debug_frame   0x00005260       0x64 C:\Softwares\CooCox\GNU Tools ARM Embedded\4.6 2012q2\arm-none-eabi\lib\armv7e-m\fpu\libc.a(lib_a-dtoa.o)
 .debug_frame   0x000052c4       0x98 C:\Softwares\CooCox\GNU Tools ARM Embedded\4.6 2012q2\arm-none-eabi\lib\armv7e-m\fpu\libc.a(lib_a-locale.o)
 .debug_frame   0x0000535c       0x38 C:\Softwares\CooCox\GNU Tools ARM Embedded\4.6 2012q2\arm-none-eabi\lib\armv7e-m\fpu\libc.a(lib_a-mallocr.o)
 .debug_frame   0x00005394       0x2c C:\Softwares\CooCox\GNU Tools ARM Embedded\4.6 2012q2\arm-none-eabi\lib\armv7e-m\fpu\libc.a(lib_a-memchr.o)
 .debug_frame   0x000053c0       0x30 C:\Softwares\CooCox\GNU Tools ARM Embedded\4.6 2012q2\arm-none-eabi\lib\armv7e-m\fpu\libc.a(lib_a-mlock.o)
 .debug_frame   0x000053f0      0x228 C:\Softwares\CooCox\GNU Tools ARM Embedded\4.6 2012q2\arm-none-eabi\lib\armv7e-m\fpu\libc.a(lib_a-mprec.o)
 .debug_frame   0x00005618       0x2c C:\Softwares\CooCox\GNU Tools ARM Embedded\4.6 2012q2\arm-none-eabi\lib\armv7e-m\fpu\libc.a(lib_a-sbrkr.o)
 .debug_frame   0x00005644       0x30 C:\Softwares\CooCox\GNU Tools ARM Embedded\4.6 2012q2\arm-none-eabi\lib\armv7e-m\fpu\libc.a(lib_a-strcmp.o)
 .debug_frame   0x00005674       0x64 C:\Softwares\CooCox\GNU Tools ARM Embedded\4.6 2012q2\arm-none-eabi\lib\armv7e-m\fpu\libc.a(lib_a-svfiprintf.o)
 .debug_frame   0x000056d8       0x28 C:\Softwares\CooCox\GNU Tools ARM Embedded\4.6 2012q2\arm-none-eabi\lib\armv7e-m\fpu\libc.a(lib_a-callocr.o)
 .debug_frame   0x00005700       0x50 C:\Softwares\CooCox\GNU Tools ARM Embedded\4.6 2012q2\arm-none-eabi\lib\armv7e-m\fpu\libc.a(lib_a-freer.o)
 .debug_frame   0x00005750       0x2c C:\Softwares\CooCox\GNU Tools ARM Embedded\4.6 2012q2\arm-none-eabi\lib\armv7e-m\fpu\libc.a(lib_a-memmove.o)
 .debug_frame   0x0000577c       0x2c C:\Softwares\CooCox\GNU Tools ARM Embedded\4.6 2012q2\arm-none-eabi\lib\armv7e-m\fpu\libc.a(lib_a-memset.o)
 .debug_frame   0x000057a8       0x38 C:\Softwares\CooCox\GNU Tools ARM Embedded\4.6 2012q2\arm-none-eabi\lib\armv7e-m\fpu\libc.a(lib_a-reallocr.o)
 .debug_frame   0x000057e0       0x68 C:\Softwares\CooCox\GNU Tools ARM Embedded\4.6 2012q2\arm-none-eabi\lib\armv7e-m\fpu\libc.a(lib_a-reent.o)
 .debug_frame   0x00005848       0x50 c:/softwares/coocox/gnu tools arm embedded/4.6 2012q2/bin/../lib/gcc/arm-none-eabi/4.6.2/armv7e-m/fpu\libgcc.a(bpabi.o)
 .debug_frame   0x00005898      0x26c c:/softwares/coocox/gnu tools arm embedded/4.6 2012q2/bin/../lib/gcc/arm-none-eabi/4.6.2/armv7e-m/fpu\libgcc.a(unwind-arm.o)
 .debug_frame   0x00005b04       0xec c:/softwares/coocox/gnu tools arm embedded/4.6 2012q2/bin/../lib/gcc/arm-none-eabi/4.6.2/armv7e-m/fpu\libgcc.a(pr-support.o)
 .debug_frame   0x00005bf0       0x34 c:/softwares/coocox/gnu tools arm embedded/4.6 2012q2/bin/../lib/gcc/arm-none-eabi/4.6.2/armv7e-m/fpu\libgcc.a(_divdi3.o)
 .debug_frame   0x00005c24       0x34 c:/softwares/coocox/gnu tools arm embedded/4.6 2012q2/bin/../lib/gcc/arm-none-eabi/4.6.2/armv7e-m/fpu\libgcc.a(_udivdi3.o)
